TN:
SF:/mnt/c/Users/zzz32/cppTasks/Lab1/src/bit_array/BitArray.cpp
FN:111,149,_ZN4bits8BitArray6resizeEib
FN:14,24,_ZN4bits8BitArrayC2Eij
FN:151,155,_ZN4bits8BitArrayD2Ev
FN:157,167,_ZN4bits8BitArrayaNERKS0_
FN:169,179,_ZN4bits8BitArrayoRERKS0_
FN:181,191,_ZN4bits8BitArrayeOERKS0_
FN:193,221,_ZN4bits8BitArrayrSEi
FN:223,228,_ZNK4bits8BitArraylsEi
FN:230,235,_ZNK4bits8BitArrayrsEi
FN:237,264,_ZN4bits8BitArraylSEi
FN:26,30,_ZN4bits8BitArrayC2ERKS0_
FN:266,272,_ZNK4bits8BitArrayixEi
FN:274,280,_ZN4bits8BitArrayixEi
FN:283,302,_ZNK4bits8BitArray9to_stringB5cxx11Ev
FN:304,307,_ZNK4bits8BitArray3anyEv
FN:309,312,_ZNK4bits8BitArray4noneEv
FN:314,324,_ZNK4bits8BitArraycoEv
FN:32,36,_ZN4bits8BitArrayC2EOS0_
FN:326,344,_ZNK4bits8BitArray5countEv
FN:346,349,_ZNK4bits8BitArray4sizeEv
FN:351,354,_ZNK4bits8BitArray5emptyEv
FN:358,363,_ZN4bitsanERKNS_8BitArrayES2_
FN:364,369,_ZN4bitsorERKNS_8BitArrayES2_
FN:370,375,_ZN4bitsorEONS_8BitArrayES1_
FN:377,382,_ZN4bitseoERKNS_8BitArrayES2_
FN:38,44,_ZN4bits8BitArray4swapERS0_
FN:385,397,_ZN4bitseqERKNS_8BitArrayES2_
FN:399,402,_ZN4bitsneERKNS_8BitArrayES2_
FN:46,57,_ZN4bits8BitArray3setEib
FN:58,62,_ZN4bits8BitArray3setEv
FN:6,12,_ZN4bits8BitArrayC2Ev
FN:64,68,_ZN4bits8BitArray5resetEi
FN:70,74,_ZN4bits8BitArray5resetEv
FN:77,80,_ZN4bits8BitArray5clearEv
FN:82,85,_ZN4bits8BitArray9push_backEb
FN:88,109,_ZN4bits8BitArrayaSERKS0_
FNDA:33,_ZN4bits8BitArray6resizeEib
FNDA:70,_ZN4bits8BitArrayC2Eij
FNDA:104,_ZN4bits8BitArrayD2Ev
FNDA:4,_ZN4bits8BitArrayaNERKS0_
FNDA:6,_ZN4bits8BitArrayoRERKS0_
FNDA:4,_ZN4bits8BitArrayeOERKS0_
FNDA:8,_ZN4bits8BitArrayrSEi
FNDA:8,_ZNK4bits8BitArraylsEi
FNDA:8,_ZNK4bits8BitArrayrsEi
FNDA:8,_ZN4bits8BitArraylSEi
FNDA:26,_ZN4bits8BitArrayC2ERKS0_
FNDA:107986,_ZNK4bits8BitArrayixEi
FNDA:12,_ZN4bits8BitArrayixEi
FNDA:321,_ZNK4bits8BitArray9to_stringB5cxx11Ev
FNDA:28,_ZNK4bits8BitArray3anyEv
FNDA:14,_ZNK4bits8BitArray4noneEv
FNDA:2,_ZNK4bits8BitArraycoEv
FNDA:28,_ZN4bits8BitArrayC2EOS0_
FNDA:306,_ZNK4bits8BitArray5countEv
FNDA:944,_ZNK4bits8BitArray4sizeEv
FNDA:2,_ZNK4bits8BitArray5emptyEv
FNDA:2,_ZN4bitsanERKNS_8BitArrayES2_
FNDA:2,_ZN4bitsorERKNS_8BitArrayES2_
FNDA:2,_ZN4bitsorEONS_8BitArrayES1_
FNDA:2,_ZN4bitseoERKNS_8BitArrayES2_
FNDA:28,_ZN4bits8BitArray4swapERS0_
FNDA:12,_ZN4bitseqERKNS_8BitArrayES2_
FNDA:6,_ZN4bitsneERKNS_8BitArrayES2_
FNDA:1618,_ZN4bits8BitArray3setEib
FNDA:2,_ZN4bits8BitArray3setEv
FNDA:34,_ZN4bits8BitArrayC2Ev
FNDA:2,_ZN4bits8BitArray5resetEi
FNDA:6,_ZN4bits8BitArray5resetEv
FNDA:4,_ZN4bits8BitArray5clearEv
FNDA:8,_ZN4bits8BitArray9push_backEb
FNDA:37,_ZN4bits8BitArrayaSERKS0_
FNF:36
FNH:36
DA:6,34
DA:8,34
DA:9,34
DA:10,34
DA:11,34
DA:12,34
DA:14,70
DA:16,70
DA:17,70
DA:18,70
DA:19,70
DA:20,70
DA:21,70
DA:23,70
DA:24,70
DA:26,26
DA:28,26
DA:29,26
DA:30,26
DA:32,28
DA:34,28
DA:35,28
DA:36,28
DA:38,28
DA:40,28
DA:41,28
DA:42,28
DA:43,28
DA:44,28
DA:46,1618
DA:48,1618
DA:49,8
DA:51,1610
DA:52,924
DA:54,686
DA:56,1610
DA:58,2
DA:60,2
DA:61,2
DA:64,2
DA:66,2
DA:67,2
DA:70,6
DA:72,6
DA:73,6
DA:77,4
DA:79,4
DA:80,4
DA:82,8
DA:84,8
DA:85,8
DA:88,37
DA:90,37
DA:92,37
DA:94,2
DA:97,35
DA:99,6
DA:100,6
DA:102,35
DA:104,35
DA:105,35
DA:106,35
DA:108,35
DA:111,33
DA:113,33
DA:114,33
DA:116,11
DA:117,11
DA:118,11
DA:119,11
DA:121,76
DA:123,65
DA:126,11
DA:127,11
DA:129,22
DA:132,66
DA:134,56
DA:137,10
DA:140,33
DA:141,9
DA:143,862
DA:145,829
DA:148,33
DA:149,33
DA:151,104
DA:153,104
DA:154,104
DA:155,104
DA:157,4
DA:159,4
DA:160,2
DA:162,10
DA:164,8
DA:166,2
DA:169,6
DA:171,6
DA:172,2
DA:174,14
DA:176,10
DA:178,4
DA:181,4
DA:183,4
DA:184,2
DA:186,10
DA:188,8
DA:190,2
DA:193,8
DA:195,8
DA:196,8
DA:199,8
DA:200,14
DA:201,8
DA:202,8
DA:205,22
DA:206,16
DA:211,8
DA:212,8
DA:213,40
DA:214,32
DA:215,32
DA:216,32
DA:220,8
DA:223,8
DA:225,8
DA:226,8
DA:227,16
DA:228,8
DA:230,8
DA:232,8
DA:233,8
DA:234,16
DA:235,8
DA:237,8
DA:239,8
DA:240,8
DA:243,8
DA:244,14
DA:245,8
DA:248,22
DA:249,16
DA:254,8
DA:255,8
DA:256,40
DA:257,32
DA:258,32
DA:259,32
DA:263,8
DA:266,107986
DA:268,107986
DA:269,6
DA:271,107980
DA:274,12
DA:276,12
DA:277,2
DA:279,10
DA:283,321
DA:285,321
DA:287,106965
DA:291,106644
DA:293,6340
DA:297,100304
DA:301,642
DA:302,321
DA:304,28
DA:306,28
DA:309,14
DA:311,14
DA:314,2
DA:316,2
DA:317,2
DA:319,6
DA:321,4
DA:323,4
DA:324,2
DA:326,306
DA:328,306
DA:329,1254
DA:331,948
DA:334,306
DA:336,7616
DA:338,7314
DA:339,820
DA:343,306
DA:346,944
DA:348,944
DA:351,2
DA:353,2
DA:358,2
DA:360,2
DA:361,2
DA:362,4
DA:363,2
DA:364,2
DA:366,2
DA:367,2
DA:368,4
DA:369,2
DA:370,2
DA:372,2
DA:373,2
DA:374,4
DA:375,2
DA:377,2
DA:379,2
DA:380,2
DA:381,4
DA:382,2
DA:385,12
DA:387,12
DA:388,4
DA:390,672
DA:392,668
DA:393,4
DA:396,4
DA:399,6
DA:401,6
LF:216
LH:216
end_of_record
TN:
SF:/mnt/c/Users/zzz32/cppTasks/Lab1/src/bit_array/BitArray.h
FN:14,16,_ZN4bits3BitC2ERji
FNDA:10,_ZN4bits3BitC2ERji
FNF:1
FNH:1
DA:14,10
DA:16,10
LF:2
LH:2
end_of_record
TN:
SF:/usr/include/c++/13/array
FN:131,132,_ZNKSt5arrayINSt8__format6_Arg_tELm2EE5beginEv
FN:141,142,_ZNKSt5arrayINSt8__format6_Arg_tELm2EE3endEv
FN:151,152,_ZNKSt5arrayINSt8__format6_Arg_tELm2EE6rbeginEv
FN:161,162,_ZNKSt5arrayINSt8__format6_Arg_tELm2EE4rendEv
FN:281,282,_ZNKSt5arrayINSt8__format6_Arg_tELm2EE4dataEv
FNDA:48,_ZNKSt5arrayINSt8__format6_Arg_tELm2EE5beginEv
FNDA:16,_ZNKSt5arrayINSt8__format6_Arg_tELm2EE3endEv
FNDA:16,_ZNKSt5arrayINSt8__format6_Arg_tELm2EE6rbeginEv
FNDA:48,_ZNKSt5arrayINSt8__format6_Arg_tELm2EE4rendEv
FNDA:64,_ZNKSt5arrayINSt8__format6_Arg_tELm2EE4dataEv
FNF:5
FNH:5
DA:131,48
DA:132,48
DA:141,16
DA:142,16
DA:151,16
DA:152,16
DA:161,48
DA:162,48
DA:281,64
DA:282,64
LF:10
LH:10
end_of_record
TN:
SF:/usr/include/c++/13/bit
FN:195,237,_ZSt13__countl_zeroIjEiT_
FN:195,237,_ZSt13__countl_zeroImEiT_
FN:195,237,_ZSt13__countl_zeroIoEiT_
FN:289,314,_ZSt10__popcountIjEiT_
FN:365,369,_ZSt11__bit_widthIjEiT_
FN:365,369,_ZSt11__bit_widthImEiT_
FN:365,369,_ZSt11__bit_widthIoEiT_
FN:426,427,_ZSt8popcountIjENSt9enable_ifIXsrSt5__or_IJSt7is_sameINSt9remove_cvIT_E4typeEhES2_IS6_tES2_IS6_jES2_IS6_mES2_IS6_yES2_IS6_oEEE5valueEiE4typeES4_
FNDA:0,_ZSt13__countl_zeroIjEiT_
FNDA:0,_ZSt13__countl_zeroImEiT_
FNDA:0,_ZSt13__countl_zeroIoEiT_
FNDA:948,_ZSt10__popcountIjEiT_
FNDA:0,_ZSt11__bit_widthIjEiT_
FNDA:0,_ZSt11__bit_widthImEiT_
FNDA:0,_ZSt11__bit_widthIoEiT_
FNDA:948,_ZSt8popcountIjENSt9enable_ifIXsrSt5__or_IJSt7is_sameINSt9remove_cvIT_E4typeEhES2_IS6_tES2_IS6_jES2_IS6_mES2_IS6_yES2_IS6_oEEE5valueEiE4typeES4_
FNF:8
FNH:2
DA:195,0
DA:198,0
DA:200,0
DA:201,0
DA:203,0
DA:204,0
DA:205,0
DA:209,0
DA:210,0
DA:214,0
DA:215,0
DA:227,0
DA:228,0
DA:230,0
DA:231,0
DA:233,0
DA:234,0
DA:235,0
DA:289,948
DA:292,948
DA:294,948
DA:295,948
DA:296,948
DA:299,948
DA:365,0
DA:367,0
DA:368,0
DA:426,948
DA:427,948
LF:29
LH:8
end_of_record
TN:
SF:/usr/include/c++/13/bits/alloc_traits.h
FNF:0
FNH:0
DA:482,0
DA:517,0
DA:576,0
DA:722,0
DA:755,0
DA:759,0
LF:6
LH:0
end_of_record
TN:
SF:/usr/include/c++/13/bits/allocator.h
FN:172,172,_ZNSaIcEaSERKS_
FNDA:0,_ZNSaIcEaSERKS_
FNF:1
FNH:0
DA:163,304
DA:168,0
DA:172,0
DA:184,304
DA:191,0
DA:193,0
DA:194,0
DA:195,0
DA:198,0
DA:205,0
DA:207,0
DA:208,0
DA:210,0
DA:217,0
LF:14
LH:2
end_of_record
TN:
SF:/usr/include/c++/13/bits/basic_string.h
FN:1071,1072,_ZNKSt7__cxx1112basic_stringIcSt11char_traitsIcESaIcEE4sizeEv
FN:1078,1079,_ZNKSt7__cxx1112basic_stringIcSt11char_traitsIcESaIcEE6lengthEv
FN:1084,1085,_ZNKSt7__cxx1112basic_stringIcSt11char_traitsIcESaIcEE8max_sizeEv
FN:1113,1114,_ZNSt7__cxx1112basic_stringIcSt11char_traitsIcESaIcEE6resizeEm
FN:1169,1173,_ZNKSt7__cxx1112basic_stringIcSt11char_traitsIcESaIcEE8capacityEv
FN:1211,1212,_ZNSt7__cxx1112basic_stringIcSt11char_traitsIcESaIcEE5clearEv
FN:1220,1221,_ZNKSt7__cxx1112basic_stringIcSt11char_traitsIcESaIcEE5emptyEv
FN:124,137,_ZNSt7__cxx1112basic_stringIcSt11char_traitsIcESaIcEE11_S_allocateERS3_m
FN:1254,1262,_ZNSt7__cxx1112basic_stringIcSt11char_traitsIcESaIcEEixEm
FN:1386,1390,_ZNSt7__cxx1112basic_stringIcSt11char_traitsIcESaIcEEpLEc
FN:1455,1460,_ZNSt7__cxx1112basic_stringIcSt11char_traitsIcESaIcEE6appendEPKcm
FN:1487,1488,_ZNSt7__cxx1112basic_stringIcSt11char_traitsIcESaIcEE6appendEmc
FN:1530,1534,_ZNSt7__cxx1112basic_stringIcSt11char_traitsIcESaIcEE6appendISt17basic_string_viewIcS2_EEENSt9enable_ifIXsrSt6__and_IJSt14is_convertibleIRKT_S7_ESt6__not_ISA_IPSC_PKS4_EESF_ISA_ISD_PKcEEEE5valueERS4_E4typeESD_
FN:1561,1568,_ZNSt7__cxx1112basic_stringIcSt11char_traitsIcESaIcEE9push_backEc
FN:1577,1610,_ZNSt7__cxx1112basic_stringIcSt11char_traitsIcESaIcEE6assignERKS4_
FN:1664,1668,_ZNSt7__cxx1112basic_stringIcSt11char_traitsIcESaIcEE6assignEPKcm
FN:1681,1686,_ZNSt7__cxx1112basic_stringIcSt11char_traitsIcESaIcEE6assignEPKc
FN:1742,1746,_ZNSt7__cxx1112basic_stringIcSt11char_traitsIcESaIcEE6assignISt17basic_string_viewIcS2_EEENSt9enable_ifIXsrSt6__and_IJSt14is_convertibleIRKT_S7_ESt6__not_ISA_IPSC_PKS4_EESF_ISA_ISD_PKcEEEE5valueERS4_E4typeESD_
FN:192,193,_ZNSt7__cxx1112basic_stringIcSt11char_traitsIcESaIcEE12_Alloc_hiderC2EPcOS3_
FN:1987,1989,_ZNSt7__cxx1112basic_stringIcSt11char_traitsIcESaIcEE6insertEmmc
FN:212,213,_ZNSt7__cxx1112basic_stringIcSt11char_traitsIcESaIcEE7_M_dataEPc
FN:217,218,_ZNSt7__cxx1112basic_stringIcSt11char_traitsIcESaIcEE9_M_lengthEm
FN:222,223,_ZNKSt7__cxx1112basic_stringIcSt11char_traitsIcESaIcEE7_M_dataEv
FN:227,234,_ZNSt7__cxx1112basic_stringIcSt11char_traitsIcESaIcEE13_M_local_dataEv
FN:238,245,_ZNKSt7__cxx1112basic_stringIcSt11char_traitsIcESaIcEE13_M_local_dataEv
FN:249,250,_ZNSt7__cxx1112basic_stringIcSt11char_traitsIcESaIcEE11_M_capacityEm
FN:254,258,_ZNSt7__cxx1112basic_stringIcSt11char_traitsIcESaIcEE13_M_set_lengthEm
FN:2608,2609,_ZNKSt7__cxx1112basic_stringIcSt11char_traitsIcESaIcEE4dataEv
FN:262,271,_ZNKSt7__cxx1112basic_stringIcSt11char_traitsIcESaIcEE11_M_is_localEv
FN:2620,2621,_ZNSt7__cxx1112basic_stringIcSt11char_traitsIcESaIcEE4dataEv
FN:280,284,_ZNSt7__cxx1112basic_stringIcSt11char_traitsIcESaIcEE10_M_disposeEv
FN:288,289,_ZNSt7__cxx1112basic_stringIcSt11char_traitsIcESaIcEE10_M_destroyEm
FN:336,337,_ZNSt7__cxx1112basic_stringIcSt11char_traitsIcESaIcEE16_M_get_allocatorEv
FN:341,342,_ZNKSt7__cxx1112basic_stringIcSt11char_traitsIcESaIcEE16_M_get_allocatorEv
FN:3727,3732,_ZSteqIcSt11char_traitsIcESaIcEEbRKNSt7__cxx1112basic_stringIT_T0_T1_EEPKS5_
FN:386,393,_ZNKSt7__cxx1112basic_stringIcSt11char_traitsIcESaIcEE8_M_checkEmPKc
FN:397,401,_ZNKSt7__cxx1112basic_stringIcSt11char_traitsIcESaIcEE15_M_check_lengthEmmPKc
FN:415,419,_ZNKSt7__cxx1112basic_stringIcSt11char_traitsIcESaIcEE11_M_disjunctEPKc
FN:425,431,_ZNSt7__cxx1112basic_stringIcSt11char_traitsIcESaIcEE7_S_copyEPcPKcm
FN:435,441,_ZNSt7__cxx1112basic_stringIcSt11char_traitsIcESaIcEE7_S_moveEPcPKcm
FN:445,451,_ZNSt7__cxx1112basic_stringIcSt11char_traitsIcESaIcEE9_S_assignEPcmc
FN:522,528,_ZNSt7__cxx1112basic_stringIcSt11char_traitsIcESaIcEEC2Ev
FN:677,698,_ZNSt7__cxx1112basic_stringIcSt11char_traitsIcESaIcEEC2EOS4_
FN:803,804,_ZNSt7__cxx1112basic_stringIcSt11char_traitsIcESaIcEED2Ev
FN:823,824,_ZNSt7__cxx1112basic_stringIcSt11char_traitsIcESaIcEEaSEPKc
FN:853,913,_ZNSt7__cxx1112basic_stringIcSt11char_traitsIcESaIcEEaSEOS4_
FN:936,937,_ZNSt7__cxx1112basic_stringIcSt11char_traitsIcESaIcEEaSISt17basic_string_viewIcS2_EEENSt9enable_ifIXsrSt6__and_IJSt14is_convertibleIRKT_S7_ESt6__not_ISA_IPSC_PKS4_EESF_ISA_ISD_PKcEEEE5valueERS4_E4typeESD_
FN:944,945,_ZNKSt7__cxx1112basic_stringIcSt11char_traitsIcESaIcEEcvSt17basic_string_viewIcS2_EEv
FNDA:0,_ZNKSt7__cxx1112basic_stringIcSt11char_traitsIcESaIcEE4sizeEv
FNDA:0,_ZNKSt7__cxx1112basic_stringIcSt11char_traitsIcESaIcEE6lengthEv
FNDA:0,_ZNKSt7__cxx1112basic_stringIcSt11char_traitsIcESaIcEE8max_sizeEv
FNDA:0,_ZNSt7__cxx1112basic_stringIcSt11char_traitsIcESaIcEE6resizeEm
FNDA:3116,_ZNKSt7__cxx1112basic_stringIcSt11char_traitsIcESaIcEE8capacityEv
FNDA:0,_ZNSt7__cxx1112basic_stringIcSt11char_traitsIcESaIcEE5clearEv
FNDA:34,_ZNKSt7__cxx1112basic_stringIcSt11char_traitsIcESaIcEE5emptyEv
FNDA:0,_ZNSt7__cxx1112basic_stringIcSt11char_traitsIcESaIcEE11_S_allocateERS3_m
FNDA:0,_ZNSt7__cxx1112basic_stringIcSt11char_traitsIcESaIcEEixEm
FNDA:1782,_ZNSt7__cxx1112basic_stringIcSt11char_traitsIcESaIcEEpLEc
FNDA:94,_ZNSt7__cxx1112basic_stringIcSt11char_traitsIcESaIcEE6appendEPKcm
FNDA:0,_ZNSt7__cxx1112basic_stringIcSt11char_traitsIcESaIcEE6appendEmc
FNDA:0,_ZNSt7__cxx1112basic_stringIcSt11char_traitsIcESaIcEE6appendISt17basic_string_viewIcS2_EEENSt9enable_ifIXsrSt6__and_IJSt14is_convertibleIRKT_S7_ESt6__not_ISA_IPSC_PKS4_EESF_ISA_ISD_PKcEEEE5valueERS4_E4typeESD_
FNDA:1782,_ZNSt7__cxx1112basic_stringIcSt11char_traitsIcESaIcEE9push_backEc
FNDA:314,_ZNSt7__cxx1112basic_stringIcSt11char_traitsIcESaIcEE6assignERKS4_
FNDA:0,_ZNSt7__cxx1112basic_stringIcSt11char_traitsIcESaIcEE6assignEPKcm
FNDA:0,_ZNSt7__cxx1112basic_stringIcSt11char_traitsIcESaIcEE6assignEPKc
FNDA:0,_ZNSt7__cxx1112basic_stringIcSt11char_traitsIcESaIcEE6assignISt17basic_string_viewIcS2_EEENSt9enable_ifIXsrSt6__and_IJSt14is_convertibleIRKT_S7_ESt6__not_ISA_IPSC_PKS4_EESF_ISA_ISD_PKcEEEE5valueERS4_E4typeESD_
FNDA:0,_ZNSt7__cxx1112basic_stringIcSt11char_traitsIcESaIcEE12_Alloc_hiderC2EPcOS3_
FNDA:0,_ZNSt7__cxx1112basic_stringIcSt11char_traitsIcESaIcEE6insertEmmc
FNDA:0,_ZNSt7__cxx1112basic_stringIcSt11char_traitsIcESaIcEE7_M_dataEPc
FNDA:0,_ZNSt7__cxx1112basic_stringIcSt11char_traitsIcESaIcEE9_M_lengthEm
FNDA:0,_ZNKSt7__cxx1112basic_stringIcSt11char_traitsIcESaIcEE7_M_dataEv
FNDA:0,_ZNSt7__cxx1112basic_stringIcSt11char_traitsIcESaIcEE13_M_local_dataEv
FNDA:0,_ZNKSt7__cxx1112basic_stringIcSt11char_traitsIcESaIcEE13_M_local_dataEv
FNDA:0,_ZNSt7__cxx1112basic_stringIcSt11char_traitsIcESaIcEE11_M_capacityEm
FNDA:0,_ZNSt7__cxx1112basic_stringIcSt11char_traitsIcESaIcEE13_M_set_lengthEm
FNDA:0,_ZNKSt7__cxx1112basic_stringIcSt11char_traitsIcESaIcEE4dataEv
FNDA:0,_ZNKSt7__cxx1112basic_stringIcSt11char_traitsIcESaIcEE11_M_is_localEv
FNDA:0,_ZNSt7__cxx1112basic_stringIcSt11char_traitsIcESaIcEE4dataEv
FNDA:0,_ZNSt7__cxx1112basic_stringIcSt11char_traitsIcESaIcEE10_M_disposeEv
FNDA:0,_ZNSt7__cxx1112basic_stringIcSt11char_traitsIcESaIcEE10_M_destroyEm
FNDA:0,_ZNSt7__cxx1112basic_stringIcSt11char_traitsIcESaIcEE16_M_get_allocatorEv
FNDA:0,_ZNKSt7__cxx1112basic_stringIcSt11char_traitsIcESaIcEE16_M_get_allocatorEv
FNDA:0,_ZSteqIcSt11char_traitsIcESaIcEEbRKNSt7__cxx1112basic_stringIT_T0_T1_EEPKS5_
FNDA:0,_ZNKSt7__cxx1112basic_stringIcSt11char_traitsIcESaIcEE8_M_checkEmPKc
FNDA:472,_ZNKSt7__cxx1112basic_stringIcSt11char_traitsIcESaIcEE15_M_check_lengthEmmPKc
FNDA:350,_ZNKSt7__cxx1112basic_stringIcSt11char_traitsIcESaIcEE11_M_disjunctEPKc
FNDA:0,_ZNSt7__cxx1112basic_stringIcSt11char_traitsIcESaIcEE7_S_copyEPcPKcm
FNDA:0,_ZNSt7__cxx1112basic_stringIcSt11char_traitsIcESaIcEE7_S_moveEPcPKcm
FNDA:0,_ZNSt7__cxx1112basic_stringIcSt11char_traitsIcESaIcEE9_S_assignEPcmc
FNDA:304,_ZNSt7__cxx1112basic_stringIcSt11char_traitsIcESaIcEEC2Ev
FNDA:308,_ZNSt7__cxx1112basic_stringIcSt11char_traitsIcESaIcEEC2EOS4_
FNDA:0,_ZNSt7__cxx1112basic_stringIcSt11char_traitsIcESaIcEED2Ev
FNDA:0,_ZNSt7__cxx1112basic_stringIcSt11char_traitsIcESaIcEEaSEPKc
FNDA:0,_ZNSt7__cxx1112basic_stringIcSt11char_traitsIcESaIcEEaSEOS4_
FNDA:0,_ZNSt7__cxx1112basic_stringIcSt11char_traitsIcESaIcEEaSISt17basic_string_viewIcS2_EEENSt9enable_ifIXsrSt6__and_IJSt14is_convertibleIRKT_S7_ESt6__not_ISA_IPSC_PKS4_EESF_ISA_ISD_PKcEEEE5valueERS4_E4typeESD_
FNDA:0,_ZNKSt7__cxx1112basic_stringIcSt11char_traitsIcESaIcEEcvSt17basic_string_viewIcS2_EEv
FNF:48
FNH:10
DA:124,0
DA:126,0
DA:136,0
DA:192,0
DA:193,0
DA:212,0
DA:213,0
DA:217,0
DA:218,0
DA:222,0
DA:223,0
DA:227,0
DA:230,0
DA:238,0
DA:241,0
DA:249,0
DA:250,0
DA:254,0
DA:256,0
DA:257,0
DA:258,0
DA:262,0
DA:264,0
DA:266,0
DA:267,0
DA:268,0
DA:270,0
DA:280,0
DA:282,0
DA:283,0
DA:284,0
DA:288,0
DA:289,0
DA:336,0
DA:337,0
DA:341,0
DA:342,0
DA:351,790
DA:352,0
DA:353,0
DA:355,790
DA:365,308
DA:386,0
DA:388,0
DA:389,0
DA:392,0
DA:397,472
DA:399,472
DA:400,0
DA:401,472
DA:415,350
DA:417,350
DA:418,350
DA:425,0
DA:427,0
DA:428,0
DA:430,0
DA:431,0
DA:435,0
DA:437,0
DA:438,0
DA:440,0
DA:441,0
DA:445,0
DA:447,0
DA:448,0
DA:450,0
DA:451,0
DA:522,304
DA:524,912
DA:527,304
DA:528,304
DA:677,308
DA:678,308
DA:680,308
DA:683,178
DA:684,178
DA:688,130
DA:689,130
DA:695,308
DA:696,308
DA:697,308
DA:698,308
DA:803,0
DA:804,0
DA:823,0
DA:824,0
DA:853,0
DA:856,0
DA:858,0
DA:859,0
DA:862,0
DA:863,0
DA:864,0
DA:867,0
DA:869,0
DA:874,0
DA:876,0
DA:877,0
DA:878,0
DA:881,0
DA:884,0
DA:886,0
DA:891,0
DA:892,0
DA:898,0
DA:899,0
DA:900,0
DA:901,0
DA:903,0
DA:904,0
DA:907,0
DA:910,0
DA:911,0
DA:912,0
DA:936,0
DA:937,0
DA:944,0
DA:945,0
DA:1071,0
DA:1072,0
DA:1078,0
DA:1079,0
DA:1084,0
DA:1085,0
DA:1113,0
DA:1114,0
DA:1169,3116
DA:1171,3116
DA:1172,3116
DA:1211,0
DA:1212,0
DA:1220,34
DA:1221,34
DA:1254,0
DA:1258,0
DA:1261,0
DA:1386,1782
DA:1388,1782
DA:1389,1782
DA:1455,94
DA:1458,94
DA:1459,94
DA:1487,0
DA:1488,0
DA:1530,0
DA:1532,0
DA:1533,0
DA:1561,1782
DA:1563,1782
DA:1564,1782
DA:1565,0
DA:1566,1782
DA:1567,1782
DA:1568,1782
DA:1577,314
DA:1580,314
DA:1582,0
DA:1583,0
DA:1587,0
DA:1589,0
DA:1590,0
DA:1591,0
DA:1595,0
DA:1596,0
DA:1598,0
DA:1599,0
DA:1600,0
DA:1601,0
DA:1602,0
DA:1605,0
DA:1608,314
DA:1609,314
DA:1664,0
DA:1667,0
DA:1681,0
DA:1684,0
DA:1685,0
DA:1742,0
DA:1744,0
DA:1745,0
DA:1987,0
DA:1988,0
DA:1989,0
DA:2608,0
DA:2609,0
DA:2620,0
DA:2621,0
DA:3727,0
DA:3730,0
DA:3731,0
LF:191
LH:45
end_of_record
TN:
SF:/usr/include/c++/13/bits/basic_string.tcc
FN:138,160,_ZNSt7__cxx1112basic_stringIcSt11char_traitsIcESaIcEE9_M_createERmm
FN:277,299,_ZNSt7__cxx1112basic_stringIcSt11char_traitsIcESaIcEE9_M_assignERKS4_
FN:304,320,_ZNSt7__cxx1112basic_stringIcSt11char_traitsIcESaIcEE7reserveEm
FN:325,345,_ZNSt7__cxx1112basic_stringIcSt11char_traitsIcESaIcEE9_M_mutateEmmPKcm
FN:400,408,_ZNSt7__cxx1112basic_stringIcSt11char_traitsIcESaIcEE6resizeEmc
FN:413,428,_ZNSt7__cxx1112basic_stringIcSt11char_traitsIcESaIcEE9_M_appendEPKcm
FN:450,475,_ZNSt7__cxx1112basic_stringIcSt11char_traitsIcESaIcEE14_M_replace_auxEmmmc
FN:511,552,_ZNSt7__cxx1112basic_stringIcSt11char_traitsIcESaIcEE10_M_replaceEmmPKcm
FNDA:0,_ZNSt7__cxx1112basic_stringIcSt11char_traitsIcESaIcEE9_M_createERmm
FNDA:314,_ZNSt7__cxx1112basic_stringIcSt11char_traitsIcESaIcEE9_M_assignERKS4_
FNDA:506,_ZNSt7__cxx1112basic_stringIcSt11char_traitsIcESaIcEE7reserveEm
FNDA:42,_ZNSt7__cxx1112basic_stringIcSt11char_traitsIcESaIcEE9_M_mutateEmmPKcm
FNDA:0,_ZNSt7__cxx1112basic_stringIcSt11char_traitsIcESaIcEE6resizeEmc
FNDA:122,_ZNSt7__cxx1112basic_stringIcSt11char_traitsIcESaIcEE9_M_appendEPKcm
FNDA:0,_ZNSt7__cxx1112basic_stringIcSt11char_traitsIcESaIcEE14_M_replace_auxEmmmc
FNDA:350,_ZNSt7__cxx1112basic_stringIcSt11char_traitsIcESaIcEE10_M_replaceEmmPKcm
FNF:8
FNH:5
DA:138,0
DA:143,0
DA:144,0
DA:149,0
DA:151,0
DA:153,0
DA:154,0
DA:159,0
DA:277,314
DA:280,314
DA:282,314
DA:283,314
DA:285,314
DA:287,2
DA:288,2
DA:289,2
DA:290,2
DA:291,2
DA:294,314
DA:295,158
DA:297,314
DA:299,314
DA:304,506
DA:307,506
DA:312,506
DA:313,70
DA:315,436
DA:316,436
DA:317,436
DA:318,436
DA:319,436
DA:325,42
DA:329,42
DA:331,42
DA:332,42
DA:334,42
DA:335,26
DA:336,42
DA:337,42
DA:338,42
DA:339,0
DA:340,0
DA:342,42
DA:343,42
DA:344,42
DA:345,42
DA:400,0
DA:403,0
DA:404,0
DA:405,0
DA:406,0
DA:407,0
DA:408,0
DA:413,122
DA:416,122
DA:418,122
DA:420,80
DA:421,80
DA:424,42
DA:426,122
DA:427,122
DA:450,0
DA:454,0
DA:456,0
DA:457,0
DA:459,0
DA:461,0
DA:463,0
DA:464,0
DA:465,0
DA:468,0
DA:470,0
DA:471,0
DA:473,0
DA:474,0
DA:511,350
DA:515,350
DA:517,350
DA:518,350
DA:520,350
DA:522,350
DA:524,350
DA:526,350
DA:528,0
DA:529,0
DA:530,0
DA:531,0
DA:532,0
DA:533,0
DA:537,350
DA:539,350
DA:540,0
DA:541,350
DA:542,350
DA:545,0
DA:548,0
DA:550,350
DA:551,350
LF:98
LH:58
end_of_record
TN:
SF:/usr/include/c++/13/bits/char_traits.h
FN:136,137,_ZN9__gnu_cxx11char_traitsIcE2eqERKcS3_
FN:199,206,_ZN9__gnu_cxx11char_traitsIcE6lengthEPKc
FN:210,217,_ZN9__gnu_cxx11char_traitsIcE4findEPKcmRS2_
FN:222,248,_ZN9__gnu_cxx11char_traitsIcE4moveEPcPKcm
FN:253,268,_ZN9__gnu_cxx11char_traitsIcE4copyEPcPKcm
FN:273,300,_ZN9__gnu_cxx11char_traitsIcE6assignEPcmc
FN:351,359,_ZNSt11char_traitsIcE6assignERcRKc
FN:362,363,_ZNSt11char_traitsIcE2eqERKcS2_
FN:366,371,_ZNSt11char_traitsIcE2ltERKcS2_
FN:374,390,_ZNSt11char_traitsIcE7compareEPKcS2_m
FN:393,400,_ZNSt11char_traitsIcE6lengthEPKc
FN:403,412,_ZNSt11char_traitsIcE4findEPKcmRS1_
FN:415,424,_ZNSt11char_traitsIcE4moveEPcPKcm
FN:427,436,_ZNSt11char_traitsIcE4copyEPcPKcm
FN:439,448,_ZNSt11char_traitsIcE6assignEPcmc
FNDA:0,_ZN9__gnu_cxx11char_traitsIcE2eqERKcS3_
FNDA:0,_ZN9__gnu_cxx11char_traitsIcE6lengthEPKc
FNDA:0,_ZN9__gnu_cxx11char_traitsIcE4findEPKcmRS2_
FNDA:0,_ZN9__gnu_cxx11char_traitsIcE4moveEPcPKcm
FNDA:0,_ZN9__gnu_cxx11char_traitsIcE4copyEPcPKcm
FNDA:0,_ZN9__gnu_cxx11char_traitsIcE6assignEPcmc
FNDA:0,_ZNSt11char_traitsIcE6assignERcRKc
FNDA:0,_ZNSt11char_traitsIcE2eqERKcS2_
FNDA:0,_ZNSt11char_traitsIcE2ltERKcS2_
FNDA:0,_ZNSt11char_traitsIcE7compareEPKcS2_m
FNDA:0,_ZNSt11char_traitsIcE6lengthEPKc
FNDA:0,_ZNSt11char_traitsIcE4findEPKcmRS1_
FNDA:0,_ZNSt11char_traitsIcE4moveEPcPKcm
FNDA:0,_ZNSt11char_traitsIcE4copyEPcPKcm
FNDA:0,_ZNSt11char_traitsIcE6assignEPcmc
FNF:15
FNH:0
DA:136,0
DA:137,0
DA:199,0
DA:202,0
DA:203,0
DA:204,0
DA:205,0
DA:210,0
DA:213,0
DA:214,0
DA:215,0
DA:216,0
DA:222,0
DA:225,0
DA:226,0
DA:228,0
DA:242,0
DA:243,0
DA:246,0
DA:247,0
DA:253,0
DA:256,0
DA:257,0
DA:259,0
DA:261,0
DA:262,0
DA:263,0
DA:266,0
DA:267,0
DA:273,0
DA:277,0
DA:279,0
DA:280,0
DA:281,0
DA:287,0
DA:290,0
DA:291,0
DA:299,0
DA:351,0
DA:354,0
DA:355,0
DA:358,0
DA:359,0
DA:362,0
DA:363,0
DA:366,0
DA:369,0
DA:370,0
DA:374,0
DA:376,0
DA:377,0
DA:379,0
DA:381,0
DA:382,0
DA:383,0
DA:384,0
DA:385,0
DA:386,0
DA:389,0
DA:393,0
DA:396,0
DA:397,0
DA:399,0
DA:403,0
DA:405,0
DA:406,0
DA:408,0
DA:409,0
DA:411,0
DA:415,0
DA:417,0
DA:418,0
DA:420,0
DA:421,0
DA:423,0
DA:427,0
DA:429,0
DA:430,0
DA:432,0
DA:433,0
DA:435,0
DA:439,0
DA:441,0
DA:442,0
DA:444,0
DA:445,0
DA:447,0
LF:87
LH:0
end_of_record
TN:
SF:/usr/include/c++/13/bits/charconv.h
FN:55,74,_ZNSt8__detail14__to_chars_lenIjEEjT_i
FN:55,74,_ZNSt8__detail14__to_chars_lenImEEjT_i
FN:55,74,_ZNSt8__detail14__to_chars_lenIoEEjT_i
FN:81,110,_ZNSt8__detail18__to_chars_10_implIjEEvPcjT_
FN:81,110,_ZNSt8__detail18__to_chars_10_implImEEvPcjT_
FN:81,110,_ZNSt8__detail18__to_chars_10_implIoEEvPcjT_
FNDA:32,_ZNSt8__detail14__to_chars_lenIjEEjT_i
FNDA:0,_ZNSt8__detail14__to_chars_lenImEEjT_i
FNDA:0,_ZNSt8__detail14__to_chars_lenIoEEjT_i
FNDA:32,_ZNSt8__detail18__to_chars_10_implIjEEvPcjT_
FNDA:0,_ZNSt8__detail18__to_chars_10_implImEEvPcjT_
FNDA:0,_ZNSt8__detail18__to_chars_10_implIoEEvPcjT_
FNF:6
FNH:2
DA:55,32
DA:61,32
DA:62,32
DA:63,32
DA:64,32
DA:67,32
DA:68,24
DA:69,4
DA:70,0
DA:71,0
DA:72,0
DA:81,32
DA:87,32
DA:93,32
DA:94,36
DA:96,4
DA:97,4
DA:98,4
DA:99,4
DA:100,4
DA:102,32
DA:104,20
DA:105,20
DA:106,20
DA:109,12
DA:110,32
LF:26
LH:23
end_of_record
TN:
SF:/usr/include/c++/13/bits/cpp_type_traits.h
FN:607,608,_ZSt12__miter_baseIPjET_S1_
FNDA:84,_ZSt12__miter_baseIPjET_S1_
FNF:1
FNH:1
DA:607,84
DA:608,84
LF:2
LH:2
end_of_record
TN:
SF:/usr/include/c++/13/bits/locale_facets.tcc
FN:1284,1317,_ZSt14__add_groupingIcEPT_S1_S0_PKcmPKS0_S5_
FNDA:0,_ZSt14__add_groupingIcEPT_S1_S0_PKcmPKS0_S5_
FNF:1
FNH:0
DA:1284,0
DA:1288,0
DA:1289,0
DA:1291,0
DA:1292,0
DA:1293,0
DA:1295,0
DA:1296,0
DA:1299,0
DA:1300,0
DA:1302,0
DA:1304,0
DA:1305,0
DA:1306,0
DA:1309,0
DA:1311,0
DA:1312,0
DA:1313,0
DA:1316,0
LF:19
LH:0
end_of_record
TN:
SF:/usr/include/c++/13/bits/move.h
FN:138,139,_ZSt9addressofIKcEPT_RS1_
FN:138,139,_ZSt9addressofINSt8__format5_SinkIcEEEPT_RS3_
FN:138,139,_ZSt9addressofIcEPT_RS0_
FN:189,200,_ZSt4swapIPjENSt9enable_ifIXsrSt6__and_IJSt6__not_ISt15__is_tuple_likeIT_EESt21is_move_constructibleIS5_ESt18is_move_assignableIS5_EEE5valueEvE4typeERS5_SF_
FN:189,200,_ZSt4swapIiENSt9enable_ifIXsrSt6__and_IJSt6__not_ISt15__is_tuple_likeIT_EESt21is_move_constructibleIS4_ESt18is_move_assignableIS4_EEE5valueEvE4typeERS4_SE_
FN:51,52,_ZSt11__addressofIKNSt7__cxx1112basic_stringIcSt11char_traitsIcESaIcEEEEPT_RS7_
FN:51,52,_ZSt11__addressofIKcEPT_RS1_
FN:51,52,_ZSt11__addressofINSt7__cxx1112basic_stringIcSt11char_traitsIcESaIcEEEEPT_RS6_
FN:51,52,_ZSt11__addressofINSt8__format5_SinkIcEEEPT_RS3_
FN:51,52,_ZSt11__addressofIcEPT_RS0_
FN:70,71,_ZSt7forwardIDnEOT_RNSt16remove_referenceIS0_E4typeE
FN:70,71,_ZSt7forwardINSt8__format17_WidthPrecVisitorEEOT_RNSt16remove_referenceIS2_E4typeE
FN:70,71,_ZSt7forwardIPKcEOT_RNSt16remove_referenceIS2_E4typeE
FN:70,71,_ZSt7forwardIRKcEOT_RNSt16remove_referenceIS2_E4typeE
FN:70,71,_ZSt7forwardIRPKcEOT_RNSt16remove_referenceIS3_E4typeE
FN:70,71,_ZSt7forwardIRcEOT_RNSt16remove_referenceIS1_E4typeE
FN:70,71,_ZSt7forwardIRtEOT_RNSt16remove_referenceIS1_E4typeE
FN:70,71,_ZSt7forwardISt6localeEOT_RNSt16remove_referenceIS1_E4typeE
FN:70,71,_ZSt7forwardIZNSt8__format19_Formatting_scannerINS0_10_Sink_iterIcEEcE13_M_format_argEmEUlRT_E_EOS5_RNSt16remove_referenceIS5_E4typeE
FN:70,71,_ZSt7forwardIiEOT_RNSt16remove_referenceIS0_E4typeE
FN:70,71,_ZSt7forwardItEOT_RNSt16remove_referenceIS0_E4typeE
FN:97,98,_ZSt4moveIRN4bits8BitArrayEEONSt16remove_referenceIT_E4typeEOS4_
FN:97,98,_ZSt4moveIRN9__gnu_cxx17__normal_iteratorIPcSt4spanIcLm18446744073709551615EEEEEONSt16remove_referenceIT_E4typeEOS8_
FN:97,98,_ZSt4moveIRNSt7__cxx1112basic_stringIcSt11char_traitsIcESaIcEEEEONSt16remove_referenceIT_E4typeEOS8_
FN:97,98,_ZSt4moveIRNSt8__format10_Sink_iterIcEEEONSt16remove_referenceIT_E4typeEOS5_
FN:97,98,_ZSt4moveIRNSt8__format9_Seq_sinkINSt7__cxx1112basic_stringIcSt11char_traitsIcESaIcEEEEEEONSt16remove_referenceIT_E4typeEOSB_
FN:97,98,_ZSt4moveIRPcEONSt16remove_referenceIT_E4typeEOS3_
FN:97,98,_ZSt4moveIRPjEONSt16remove_referenceIT_E4typeEOS3_
FN:97,98,_ZSt4moveIRSaIcEEONSt16remove_referenceIT_E4typeEOS3_
FN:97,98,_ZSt4moveIRSt4pairItPKcEEONSt16remove_referenceIT_E4typeEOS6_
FN:97,98,_ZSt4moveIRSt6localeEONSt16remove_referenceIT_E4typeEOS3_
FN:97,98,_ZSt4moveIRiEONSt16remove_referenceIT_E4typeEOS2_
FNDA:0,_ZSt9addressofIKcEPT_RS1_
FNDA:16,_ZSt9addressofINSt8__format5_SinkIcEEEPT_RS3_
FNDA:0,_ZSt9addressofIcEPT_RS0_
FNDA:28,_ZSt4swapIPjENSt9enable_ifIXsrSt6__and_IJSt6__not_ISt15__is_tuple_likeIT_EESt21is_move_constructibleIS5_ESt18is_move_assignableIS5_EEE5valueEvE4typeERS5_SF_
FNDA:84,_ZSt4swapIiENSt9enable_ifIXsrSt6__and_IJSt6__not_ISt15__is_tuple_likeIT_EESt21is_move_constructibleIS4_ESt18is_move_assignableIS4_EEE5valueEvE4typeERS4_SE_
FNDA:314,_ZSt11__addressofIKNSt7__cxx1112basic_stringIcSt11char_traitsIcESaIcEEEEPT_RS7_
FNDA:0,_ZSt11__addressofIKcEPT_RS1_
FNDA:390,_ZSt11__addressofINSt7__cxx1112basic_stringIcSt11char_traitsIcESaIcEEEEPT_RS6_
FNDA:16,_ZSt11__addressofINSt8__format5_SinkIcEEEPT_RS3_
FNDA:0,_ZSt11__addressofIcEPT_RS0_
FNDA:0,_ZSt7forwardIDnEOT_RNSt16remove_referenceIS0_E4typeE
FNDA:0,_ZSt7forwardINSt8__format17_WidthPrecVisitorEEOT_RNSt16remove_referenceIS2_E4typeE
FNDA:0,_ZSt7forwardIPKcEOT_RNSt16remove_referenceIS2_E4typeE
FNDA:0,_ZSt7forwardIRKcEOT_RNSt16remove_referenceIS2_E4typeE
FNDA:0,_ZSt7forwardIRPKcEOT_RNSt16remove_referenceIS3_E4typeE
FNDA:0,_ZSt7forwardIRcEOT_RNSt16remove_referenceIS1_E4typeE
FNDA:0,_ZSt7forwardIRtEOT_RNSt16remove_referenceIS1_E4typeE
FNDA:0,_ZSt7forwardISt6localeEOT_RNSt16remove_referenceIS1_E4typeE
FNDA:64,_ZSt7forwardIZNSt8__format19_Formatting_scannerINS0_10_Sink_iterIcEEcE13_M_format_argEmEUlRT_E_EOS5_RNSt16remove_referenceIS5_E4typeE
FNDA:96,_ZSt7forwardIiEOT_RNSt16remove_referenceIS0_E4typeE
FNDA:0,_ZSt7forwardItEOT_RNSt16remove_referenceIS0_E4typeE
FNDA:2,_ZSt4moveIRN4bits8BitArrayEEONSt16remove_referenceIT_E4typeEOS4_
FNDA:0,_ZSt4moveIRN9__gnu_cxx17__normal_iteratorIPcSt4spanIcLm18446744073709551615EEEEEONSt16remove_referenceIT_E4typeEOS8_
FNDA:128,_ZSt4moveIRNSt7__cxx1112basic_stringIcSt11char_traitsIcESaIcEEEEONSt16remove_referenceIT_E4typeEOS8_
FNDA:240,_ZSt4moveIRNSt8__format10_Sink_iterIcEEEONSt16remove_referenceIT_E4typeEOS5_
FNDA:16,_ZSt4moveIRNSt8__format9_Seq_sinkINSt7__cxx1112basic_stringIcSt11char_traitsIcESaIcEEEEEEONSt16remove_referenceIT_E4typeEOSB_
FNDA:0,_ZSt4moveIRPcEONSt16remove_referenceIT_E4typeEOS3_
FNDA:84,_ZSt4moveIRPjEONSt16remove_referenceIT_E4typeEOS3_
FNDA:0,_ZSt4moveIRSaIcEEONSt16remove_referenceIT_E4typeEOS3_
FNDA:0,_ZSt4moveIRSt4pairItPKcEEONSt16remove_referenceIT_E4typeEOS6_
FNDA:0,_ZSt4moveIRSt6localeEONSt16remove_referenceIT_E4typeEOS3_
FNDA:280,_ZSt4moveIRiEONSt16remove_referenceIT_E4typeEOS2_
FNF:32
FNH:14
DA:51,720
DA:52,720
DA:70,160
DA:71,160
DA:97,750
DA:98,750
DA:138,16
DA:139,16
DA:189,112
DA:197,112
DA:198,112
DA:199,112
DA:200,112
LF:13
LH:13
end_of_record
TN:
SF:/usr/include/c++/13/bits/new_allocator.h
FN:126,152,_ZNSt15__new_allocatorIcE8allocateEmPKv
FN:156,173,_ZNSt15__new_allocatorIcE10deallocateEPcm
FNDA:0,_ZNSt15__new_allocatorIcE8allocateEmPKv
FNDA:0,_ZNSt15__new_allocatorIcE10deallocateEPcm
FNF:2
FNH:0
DA:88,304
DA:92,0
DA:126,0
DA:134,0
DA:140,0
DA:151,0
DA:156,0
DA:172,0
DA:233,0
LF:9
LH:1
end_of_record
TN:
SF:/usr/include/c++/13/bits/ptr_traits.h
FN:141,142,_ZNSt19__ptr_traits_ptr_toIPKcS0_Lb0EE10pointer_toERS0_
FN:141,142,_ZNSt19__ptr_traits_ptr_toIPccLb0EE10pointer_toERc
FN:212,216,_ZSt12__to_addressIKcEPT_S2_
FN:212,216,_ZSt12__to_addressIcEPT_S1_
FN:250,251,_ZSt10to_addressIKcEPT_S2_
FN:250,251,_ZSt10to_addressIcEPT_S1_
FNDA:0,_ZNSt19__ptr_traits_ptr_toIPKcS0_Lb0EE10pointer_toERS0_
FNDA:0,_ZNSt19__ptr_traits_ptr_toIPccLb0EE10pointer_toERc
FNDA:128,_ZSt12__to_addressIKcEPT_S2_
FNDA:144,_ZSt12__to_addressIcEPT_S1_
FNDA:128,_ZSt10to_addressIKcEPT_S2_
FNDA:144,_ZSt10to_addressIcEPT_S1_
FNF:6
FNH:4
DA:141,0
DA:142,0
DA:212,272
DA:215,272
DA:250,272
DA:251,272
LF:6
LH:4
end_of_record
TN:
SF:/usr/include/c++/13/bits/range_access.h
FNF:0
FNH:0
DA:107,0
DA:359,0
LF:2
LH:0
end_of_record
TN:
SF:/usr/include/c++/13/bits/ranges_algobase.h
FN:213,293,_ZNSt6ranges14__copy_or_moveILb0EN9__gnu_cxx17__normal_iteratorIPcSt4spanIcLm18446744073709551615EEEES6_NSt8__format10_Sink_iterIcEEEENSt13__conditionalIXT_EE4typeINS_13in_out_resultIT0_T2_EESG_EESE_T1_SF_
FN:213,293,_ZNSt6ranges14__copy_or_moveILb0EPcS1_NSt8__format10_Sink_iterIcEEEENSt13__conditionalIXT_EE4typeINS_13in_out_resultIT0_T2_EESB_EES9_T1_SA_
FN:301,306,_ZNKSt6ranges9__copy_fnclIN9__gnu_cxx17__normal_iteratorIPcSt4spanIcLm18446744073709551615EEEES7_NSt8__format10_Sink_iterIcEEEENS_13in_out_resultIT_T1_EESC_T0_SD_
FN:311,315,_ZNKSt6ranges9__copy_fnclIRSt4spanIcLm18446744073709551615EENSt8__format10_Sink_iterIcEEEENS_13in_out_resultINSt13__conditionalIX14borrowed_rangeIT_EEE4typeIDTcl7__begincl7declvalIRSA_EEEENS_8danglingEEET0_EEOSA_SH_
FNDA:0,_ZNSt6ranges14__copy_or_moveILb0EN9__gnu_cxx17__normal_iteratorIPcSt4spanIcLm18446744073709551615EEEES6_NSt8__format10_Sink_iterIcEEEENSt13__conditionalIXT_EE4typeINS_13in_out_resultIT0_T2_EESG_EESE_T1_SF_
FNDA:0,_ZNSt6ranges14__copy_or_moveILb0EPcS1_NSt8__format10_Sink_iterIcEEEENSt13__conditionalIXT_EE4typeINS_13in_out_resultIT0_T2_EESB_EES9_T1_SA_
FNDA:0,_ZNKSt6ranges9__copy_fnclIN9__gnu_cxx17__normal_iteratorIPcSt4spanIcLm18446744073709551615EEEES7_NSt8__format10_Sink_iterIcEEEENS_13in_out_resultIT_T1_EESC_T0_SD_
FNDA:0,_ZNKSt6ranges9__copy_fnclIRSt4spanIcLm18446744073709551615EENSt8__format10_Sink_iterIcEEEENS_13in_out_resultINSt13__conditionalIX14borrowed_rangeIT_EEE4typeIDTcl7__begincl7declvalIRSA_EEEENS_8danglingEEET0_EEOSA_SH_
FNF:4
FNH:0
DA:213,0
DA:241,0
DA:242,0
DA:243,0
DA:253,0
DA:269,0
DA:274,0
DA:275,0
DA:278,0
DA:301,0
DA:303,0
DA:304,0
DA:305,0
DA:311,0
DA:313,0
DA:314,0
LF:16
LH:0
end_of_record
TN:
SF:/usr/include/c++/13/bits/ranges_base.h
FN:115,126,_ZNKSt6ranges13__cust_access6_BeginclIRSt4spanIcLm18446744073709551615EEEEDaOT_
FN:166,177,_ZNKSt6ranges13__cust_access4_EndclIRSt4spanIcLm18446744073709551615EEEEDaOT_
FNDA:0,_ZNKSt6ranges13__cust_access6_BeginclIRSt4spanIcLm18446744073709551615EEEEDaOT_
FNDA:0,_ZNKSt6ranges13__cust_access4_EndclIRSt4spanIcLm18446744073709551615EEEEDaOT_
FNF:2
FNH:0
DA:115,0
DA:123,0
DA:166,0
DA:174,0
LF:4
LH:0
end_of_record
TN:
SF:/usr/include/c++/13/bits/stl_algo.h
FN:729,731,_ZSt8__copy_nIPjiS0_ET1_T_T0_S1_St26random_access_iterator_tag
FN:749,765,_ZSt6copy_nIPjiS0_ET1_T_T0_S1_
FNDA:42,_ZSt8__copy_nIPjiS0_ET1_T_T0_S1_St26random_access_iterator_tag
FNDA:46,_ZSt6copy_nIPjiS0_ET1_T_T0_S1_
FNF:2
FNH:2
DA:729,42
DA:731,42
DA:749,46
DA:756,46
DA:757,46
DA:758,4
DA:763,84
DA:764,42
LF:8
LH:8
end_of_record
TN:
SF:/usr/include/c++/13/bits/stl_algobase.h
FN:1012,1012,_ZSt17__size_to_integeri
FN:1117,1130,_ZSt10__fill_n_aIPjiiET_S1_T0_RKT1_St26random_access_iterator_tag
FN:1152,1159,_ZSt6fill_nIPjiiET_S1_T0_RKT1_
FN:233,241,_ZSt3minIiERKT_S2_S2_
FN:233,241,_ZSt3minImERKT_S2_S2_
FN:257,265,_ZSt3maxIiERKT_S2_S2_
FN:316,318,_ZSt12__niter_baseIPjET_S1_
FN:338,339,_ZSt12__niter_wrapIPjET_RKS1_S1_
FN:383,393,_ZNSt11__copy_moveILb0ELb0ESt26random_access_iterator_tagE8__copy_mIPjS3_EET0_T_S5_S4_
FN:397,398,_ZNSt11__copy_moveILb0ELb0ESt26random_access_iterator_tagE12__assign_oneIjjEEvPT_PT0_
FN:433,442,_ZNSt11__copy_moveILb0ELb1ESt26random_access_iterator_tagE8__copy_mIjjEEPT0_PT_S6_S4_
FN:497,507,_ZSt14__copy_move_a2ILb0EPjS0_ET1_T0_S2_S1_
FN:532,533,_ZSt14__copy_move_a1ILb0EPjS0_ET1_T0_S2_S1_
FN:538,544,_ZSt13__copy_move_aILb0EPjS0_ET1_T0_S2_S1_
FN:624,634,_ZSt4copyIPjS0_ET0_T_S2_S1_
FN:926,932,_ZSt9__fill_a1IPjiEN9__gnu_cxx11__enable_ifIXsrSt11__is_scalarIT0_E7__valueEvE6__typeET_S8_RKS4_
FN:976,977,_ZSt8__fill_aIPjiEvT_S1_RKT0_
FNDA:124,_ZSt17__size_to_integeri
FNDA:78,_ZSt10__fill_n_aIPjiiET_S1_T0_RKT1_St26random_access_iterator_tag
FNDA:78,_ZSt6fill_nIPjiiET_S1_T0_RKT1_
FNDA:36,_ZSt3minIiERKT_S2_S2_
FNDA:0,_ZSt3minImERKT_S2_S2_
FNDA:6,_ZSt3maxIiERKT_S2_S2_
FNDA:126,_ZSt12__niter_baseIPjET_S1_
FNDA:42,_ZSt12__niter_wrapIPjET_RKS1_S1_
FNDA:0,_ZNSt11__copy_moveILb0ELb0ESt26random_access_iterator_tagE8__copy_mIPjS3_EET0_T_S5_S4_
FNDA:6,_ZNSt11__copy_moveILb0ELb0ESt26random_access_iterator_tagE12__assign_oneIjjEEvPT_PT0_
FNDA:42,_ZNSt11__copy_moveILb0ELb1ESt26random_access_iterator_tagE8__copy_mIjjEEPT0_PT_S6_S4_
FNDA:42,_ZSt14__copy_move_a2ILb0EPjS0_ET1_T0_S2_S1_
FNDA:42,_ZSt14__copy_move_a1ILb0EPjS0_ET1_T0_S2_S1_
FNDA:42,_ZSt13__copy_move_aILb0EPjS0_ET1_T0_S2_S1_
FNDA:42,_ZSt4copyIPjS0_ET0_T_S2_S1_
FNDA:78,_ZSt9__fill_a1IPjiEN9__gnu_cxx11__enable_ifIXsrSt11__is_scalarIT0_E7__valueEvE6__typeET_S8_RKS4_
FNDA:78,_ZSt8__fill_aIPjiEvT_S1_RKT0_
FNF:17
FNH:15
DA:233,36
DA:238,36
DA:239,10
DA:240,26
DA:257,6
DA:262,6
DA:263,2
DA:264,4
DA:316,126
DA:318,126
DA:338,42
DA:339,42
DA:383,0
DA:386,0
DA:388,0
DA:389,0
DA:390,0
DA:392,0
DA:397,6
DA:398,6
DA:433,42
DA:435,42
DA:436,42
DA:437,36
DA:438,6
DA:440,6
DA:441,42
DA:497,42
DA:501,42
DA:503,0
DA:506,42
DA:532,42
DA:533,42
DA:538,42
DA:540,42
DA:543,42
DA:624,42
DA:633,42
DA:926,78
DA:929,78
DA:930,957
DA:931,879
DA:932,78
DA:976,78
DA:977,78
DA:1012,124
DA:1117,78
DA:1123,78
DA:1124,0
DA:1128,78
DA:1129,78
DA:1152,78
DA:1157,78
DA:1158,156
LF:54
LH:46
end_of_record
TN:
SF:/usr/include/c++/13/bits/stl_construct.h
FN:94,97,_ZSt12construct_atISt6localeJEEDTgsnwcvPvLi0E_T_pispcl7declvalIT0_EEEEPS2_DpOS3_
FN:94,97,_ZSt12construct_atISt6localeJS0_EEDTgsnwcvPvLi0E_T_pispcl7declvalIT0_EEEEPS2_DpOS3_
FN:94,97,_ZSt12construct_atIcJRKcEEDTgsnwcvPvLi0E_T_pispcl7declvalIT0_EEEEPS3_DpOS4_
FN:94,97,_ZSt12construct_atIcJRcEEDTgsnwcvPvLi0E_T_pispcl7declvalIT0_EEEEPS2_DpOS3_
FNDA:0,_ZSt12construct_atISt6localeJEEDTgsnwcvPvLi0E_T_pispcl7declvalIT0_EEEEPS2_DpOS3_
FNDA:0,_ZSt12construct_atISt6localeJS0_EEDTgsnwcvPvLi0E_T_pispcl7declvalIT0_EEEEPS2_DpOS3_
FNDA:0,_ZSt12construct_atIcJRKcEEDTgsnwcvPvLi0E_T_pispcl7declvalIT0_EEEEPS3_DpOS4_
FNDA:0,_ZSt12construct_atIcJRcEEDTgsnwcvPvLi0E_T_pispcl7declvalIT0_EEEEPS2_DpOS3_
FNF:4
FNH:0
DA:94,0
DA:97,0
LF:2
LH:0
end_of_record
TN:
SF:/usr/include/c++/13/bits/stl_function.h
FN:451,458,_ZNKSt4lessIPKcEclES1_S1_
FNDA:604,_ZNKSt4lessIPKcEclES1_S1_
FNF:1
FNH:1
DA:451,604
DA:454,604
DA:455,0
DA:457,604
LF:4
LH:3
end_of_record
TN:
SF:/usr/include/c++/13/bits/stl_iterator.h
FN:1076,1077,_ZN9__gnu_cxx17__normal_iteratorIPcSt4spanIcLm18446744073709551615EEEC2ERKS1_
FN:1099,1100,_ZNK9__gnu_cxx17__normal_iteratorIPcSt4spanIcLm18446744073709551615EEEdeEv
FN:1117,1118,_ZN9__gnu_cxx17__normal_iteratorIPcSt4spanIcLm18446744073709551615EEEppEi
FN:1142,1143,_ZN9__gnu_cxx17__normal_iteratorIPcSt4spanIcLm18446744073709551615EEEpLEl
FN:1162,1163,_ZNK9__gnu_cxx17__normal_iteratorIPcSt4spanIcLm18446744073709551615EEE4baseEv
FN:1334,1337,_ZN9__gnu_cxxmiIPcSt4spanIcLm18446744073709551615EEEENS_17__normal_iteratorIT_T0_E15difference_typeERKS7_SA_
FN:195,198,_ZNSt16reverse_iteratorIPKNSt8__format6_Arg_tEEC2ES3_
FN:248,250,_ZNKSt16reverse_iteratorIPKNSt8__format6_Arg_tEE4baseEv
FN:264,268,_ZNKSt16reverse_iteratorIPKNSt8__format6_Arg_tEEdeEv
FN:296,300,_ZNSt16reverse_iteratorIPKNSt8__format6_Arg_tEEppEv
FN:593,596,_ZSteqIPKNSt8__format6_Arg_tEEbRKSt16reverse_iteratorIT_ES8_
FNDA:160,_ZN9__gnu_cxx17__normal_iteratorIPcSt4spanIcLm18446744073709551615EEEC2ERKS1_
FNDA:0,_ZNK9__gnu_cxx17__normal_iteratorIPcSt4spanIcLm18446744073709551615EEEdeEv
FNDA:0,_ZN9__gnu_cxx17__normal_iteratorIPcSt4spanIcLm18446744073709551615EEEppEi
FNDA:80,_ZN9__gnu_cxx17__normal_iteratorIPcSt4spanIcLm18446744073709551615EEEpLEl
FNDA:224,_ZNK9__gnu_cxx17__normal_iteratorIPcSt4spanIcLm18446744073709551615EEE4baseEv
FNDA:112,_ZN9__gnu_cxxmiIPcSt4spanIcLm18446744073709551615EEEENS_17__normal_iteratorIT_T0_E15difference_typeERKS7_SA_
FNDA:64,_ZNSt16reverse_iteratorIPKNSt8__format6_Arg_tEEC2ES3_
FNDA:96,_ZNKSt16reverse_iteratorIPKNSt8__format6_Arg_tEE4baseEv
FNDA:32,_ZNKSt16reverse_iteratorIPKNSt8__format6_Arg_tEEdeEv
FNDA:32,_ZNSt16reverse_iteratorIPKNSt8__format6_Arg_tEEppEv
FNDA:48,_ZSteqIPKNSt8__format6_Arg_tEEbRKSt16reverse_iteratorIT_ES8_
FNF:11
FNH:9
DA:195,64
DA:197,64
DA:198,64
DA:248,96
DA:250,96
DA:264,32
DA:266,32
DA:267,32
DA:296,32
DA:298,32
DA:299,32
DA:593,48
DA:596,48
DA:1076,160
DA:1077,160
DA:1099,0
DA:1100,0
DA:1117,0
DA:1118,0
DA:1142,80
DA:1143,80
DA:1162,224
DA:1163,224
DA:1334,112
DA:1337,112
LF:25
LH:21
end_of_record
TN:
SF:/usr/include/c++/13/bits/stl_iterator_base_types.h
FNF:0
FNH:0
DA:240,120
LF:1
LH:1
end_of_record
TN:
SF:/usr/include/c++/13/bits/stl_pair.h
FN:1014,1015,_ZNSt10__pair_getILm1EE10__move_getItPKcEEOT0_OSt4pairIT_S4_E
FN:1040,1041,_ZSt3getILm0EtPKcEONSt13tuple_elementIXT_ESt4pairIT0_T1_EE4typeEOS6_
FN:1040,1041,_ZSt3getILm1EtPKcEONSt13tuple_elementIXT_ESt4pairIT0_T1_EE4typeEOS6_
FN:305,309,_ZNSt4pairItPKcEC2ERKtRKS1_
FN:315,318,_ZNSt4pairItPKcEC2IRtRS1_EEOT_OT0_
FN:315,318,_ZNSt4pairItPKcEC2IiDnEEOT_OT0_
FN:315,318,_ZNSt4pairItPKcEC2IiS1_EEOT_OT0_
FN:990,991,_ZNSt10__pair_getILm0EE10__move_getItPKcEEOT_OSt4pairIS4_T0_E
FNDA:0,_ZNSt10__pair_getILm1EE10__move_getItPKcEEOT0_OSt4pairIT_S4_E
FNDA:0,_ZSt3getILm0EtPKcEONSt13tuple_elementIXT_ESt4pairIT0_T1_EE4typeEOS6_
FNDA:0,_ZSt3getILm1EtPKcEONSt13tuple_elementIXT_ESt4pairIT0_T1_EE4typeEOS6_
FNDA:0,_ZNSt4pairItPKcEC2ERKtRKS1_
FNDA:0,_ZNSt4pairItPKcEC2IRtRS1_EEOT_OT0_
FNDA:0,_ZNSt4pairItPKcEC2IiDnEEOT_OT0_
FNDA:0,_ZNSt4pairItPKcEC2IiS1_EEOT_OT0_
FNDA:0,_ZNSt10__pair_getILm0EE10__move_getItPKcEEOT_OSt4pairIS4_T0_E
FNF:8
FNH:0
DA:305,0
DA:308,0
DA:309,0
DA:315,0
DA:317,0
DA:318,0
DA:990,0
DA:991,0
DA:1014,0
DA:1015,0
DA:1040,0
DA:1041,0
LF:12
LH:0
end_of_record
TN:
SF:/usr/include/c++/13/bits/string_view.tcc
FN:185,192,_ZNKSt17basic_string_viewIcSt11char_traitsIcEE17find_first_not_ofEcm
FN:80,92,_ZNKSt17basic_string_viewIcSt11char_traitsIcEE4findEcm
FNDA:0,_ZNKSt17basic_string_viewIcSt11char_traitsIcEE17find_first_not_ofEcm
FNDA:96,_ZNKSt17basic_string_viewIcSt11char_traitsIcEE4findEcm
FNF:2
FNH:1
DA:80,96
DA:83,96
DA:84,96
DA:86,96
DA:87,96
DA:88,96
DA:89,64
DA:91,96
DA:185,0
DA:188,0
DA:189,0
DA:190,0
DA:191,0
LF:13
LH:8
end_of_record
TN:
SF:/usr/include/c++/13/charconv
FN:125,126,_ZNSt8__detail16__to_chars_len_2IjEEjT_
FN:125,126,_ZNSt8__detail16__to_chars_len_2ImEEjT_
FN:125,126,_ZNSt8__detail16__to_chars_len_2IoEEjT_
FN:131,167,_ZNSt8__detail10__to_charsIjEESt15to_chars_resultPcS2_T_i
FN:131,167,_ZNSt8__detail10__to_charsImEESt15to_chars_resultPcS2_T_i
FN:131,167,_ZNSt8__detail10__to_charsIoEESt15to_chars_resultPcS2_T_i
FN:171,213,_ZNSt8__detail13__to_chars_16IjEENSt9enable_ifIXsrSt5__or_IJS2_IJSt7is_sameINSt9remove_cvIT_E4typeEaES3_IS7_sES3_IS7_iES3_IS7_lES3_IS7_xES3_IS7_nEEES2_IJS3_IS7_hES3_IS7_tES3_IS7_jES3_IS7_mES3_IS7_yES3_IS7_oEEES3_IcS7_EEE5valueESt15to_chars_resultE4typeEPcSR_S5_
FN:171,213,_ZNSt8__detail13__to_chars_16ImEENSt9enable_ifIXsrSt5__or_IJS2_IJSt7is_sameINSt9remove_cvIT_E4typeEaES3_IS7_sES3_IS7_iES3_IS7_lES3_IS7_xES3_IS7_nEEES2_IJS3_IS7_hES3_IS7_tES3_IS7_jES3_IS7_mES3_IS7_yES3_IS7_oEEES3_IcS7_EEE5valueESt15to_chars_resultE4typeEPcSR_S5_
FN:171,213,_ZNSt8__detail13__to_chars_16IoEENSt9enable_ifIXsrSt5__or_IJS2_IJSt7is_sameINSt9remove_cvIT_E4typeEaES3_IS7_sES3_IS7_iES3_IS7_lES3_IS7_xES3_IS7_nEEES2_IJS3_IS7_hES3_IS7_tES3_IS7_jES3_IS7_mES3_IS7_yES3_IS7_oEEES3_IcS7_EEE5valueESt15to_chars_resultE4typeEPcSR_S5_
FN:217,236,_ZNSt8__detail13__to_chars_10IjEENSt9enable_ifIXsrSt5__or_IJS2_IJSt7is_sameINSt9remove_cvIT_E4typeEaES3_IS7_sES3_IS7_iES3_IS7_lES3_IS7_xES3_IS7_nEEES2_IJS3_IS7_hES3_IS7_tES3_IS7_jES3_IS7_mES3_IS7_yES3_IS7_oEEES3_IcS7_EEE5valueESt15to_chars_resultE4typeEPcSR_S5_
FN:217,236,_ZNSt8__detail13__to_chars_10ImEENSt9enable_ifIXsrSt5__or_IJS2_IJSt7is_sameINSt9remove_cvIT_E4typeEaES3_IS7_sES3_IS7_iES3_IS7_lES3_IS7_xES3_IS7_nEEES2_IJS3_IS7_hES3_IS7_tES3_IS7_jES3_IS7_mES3_IS7_yES3_IS7_oEEES3_IcS7_EEE5valueESt15to_chars_resultE4typeEPcSR_S5_
FN:217,236,_ZNSt8__detail13__to_chars_10IoEENSt9enable_ifIXsrSt5__or_IJS2_IJSt7is_sameINSt9remove_cvIT_E4typeEaES3_IS7_sES3_IS7_iES3_IS7_lES3_IS7_xES3_IS7_nEEES2_IJS3_IS7_hES3_IS7_tES3_IS7_jES3_IS7_mES3_IS7_yES3_IS7_oEEES3_IcS7_EEE5valueESt15to_chars_resultE4typeEPcSR_S5_
FN:240,289,_ZNSt8__detail12__to_chars_8IjEENSt9enable_ifIXsrSt5__or_IJS2_IJSt7is_sameINSt9remove_cvIT_E4typeEaES3_IS7_sES3_IS7_iES3_IS7_lES3_IS7_xES3_IS7_nEEES2_IJS3_IS7_hES3_IS7_tES3_IS7_jES3_IS7_mES3_IS7_yES3_IS7_oEEES3_IcS7_EEE5valueESt15to_chars_resultE4typeEPcSR_S5_
FN:240,289,_ZNSt8__detail12__to_chars_8ImEENSt9enable_ifIXsrSt5__or_IJS2_IJSt7is_sameINSt9remove_cvIT_E4typeEaES3_IS7_sES3_IS7_iES3_IS7_lES3_IS7_xES3_IS7_nEEES2_IJS3_IS7_hES3_IS7_tES3_IS7_jES3_IS7_mES3_IS7_yES3_IS7_oEEES3_IcS7_EEE5valueESt15to_chars_resultE4typeEPcSR_S5_
FN:240,289,_ZNSt8__detail12__to_chars_8IoEENSt9enable_ifIXsrSt5__or_IJS2_IJSt7is_sameINSt9remove_cvIT_E4typeEaES3_IS7_sES3_IS7_iES3_IS7_lES3_IS7_xES3_IS7_nEEES2_IJS3_IS7_hES3_IS7_tES3_IS7_jES3_IS7_mES3_IS7_yES3_IS7_oEEES3_IcS7_EEE5valueESt15to_chars_resultE4typeEPcSR_S5_
FN:293,323,_ZNSt8__detail12__to_chars_2IjEENSt9enable_ifIXsrSt5__or_IJS2_IJSt7is_sameINSt9remove_cvIT_E4typeEaES3_IS7_sES3_IS7_iES3_IS7_lES3_IS7_xES3_IS7_nEEES2_IJS3_IS7_hES3_IS7_tES3_IS7_jES3_IS7_mES3_IS7_yES3_IS7_oEEES3_IcS7_EEE5valueESt15to_chars_resultE4typeEPcSR_S5_
FN:293,323,_ZNSt8__detail12__to_chars_2ImEENSt9enable_ifIXsrSt5__or_IJS2_IJSt7is_sameINSt9remove_cvIT_E4typeEaES3_IS7_sES3_IS7_iES3_IS7_lES3_IS7_xES3_IS7_nEEES2_IJS3_IS7_hES3_IS7_tES3_IS7_jES3_IS7_mES3_IS7_yES3_IS7_oEEES3_IcS7_EEE5valueESt15to_chars_resultE4typeEPcSR_S5_
FN:293,323,_ZNSt8__detail12__to_chars_2IoEENSt9enable_ifIXsrSt5__or_IJS2_IJSt7is_sameINSt9remove_cvIT_E4typeEaES3_IS7_sES3_IS7_iES3_IS7_lES3_IS7_xES3_IS7_nEEES2_IJS3_IS7_hES3_IS7_tES3_IS7_jES3_IS7_mES3_IS7_yES3_IS7_oEEES3_IcS7_EEE5valueESt15to_chars_resultE4typeEPcSR_S5_
FN:329,364,_ZSt12__to_chars_iIhENSt9enable_ifIXsrSt5__or_IJS1_IJSt7is_sameINSt9remove_cvIT_E4typeEaES2_IS6_sES2_IS6_iES2_IS6_lES2_IS6_xES2_IS6_nEEES1_IJS2_IS6_hES2_IS6_tES2_IS6_jES2_IS6_mES2_IS6_yES2_IS6_oEEES2_IcS6_EEE5valueESt15to_chars_resultE4typeEPcSQ_S4_i
FN:329,364,_ZSt12__to_chars_iIjENSt9enable_ifIXsrSt5__or_IJS1_IJSt7is_sameINSt9remove_cvIT_E4typeEaES2_IS6_sES2_IS6_iES2_IS6_lES2_IS6_xES2_IS6_nEEES1_IJS2_IS6_hES2_IS6_tES2_IS6_jES2_IS6_mES2_IS6_yES2_IS6_oEEES2_IcS6_EEE5valueESt15to_chars_resultE4typeEPcSQ_S4_i
FN:329,364,_ZSt12__to_chars_iImENSt9enable_ifIXsrSt5__or_IJS1_IJSt7is_sameINSt9remove_cvIT_E4typeEaES2_IS6_sES2_IS6_iES2_IS6_lES2_IS6_xES2_IS6_nEEES1_IJS2_IS6_hES2_IS6_tES2_IS6_jES2_IS6_mES2_IS6_yES2_IS6_oEEES2_IcS6_EEE5valueESt15to_chars_resultE4typeEPcSQ_S4_i
FN:329,364,_ZSt12__to_chars_iIoENSt9enable_ifIXsrSt5__or_IJS1_IJSt7is_sameINSt9remove_cvIT_E4typeEaES2_IS6_sES2_IS6_iES2_IS6_lES2_IS6_xES2_IS6_nEEES1_IJS2_IS6_hES2_IS6_tES2_IS6_jES2_IS6_mES2_IS6_yES2_IS6_oEEES2_IcS6_EEE5valueESt15to_chars_resultE4typeEPcSQ_S4_i
FN:329,364,_ZSt12__to_chars_iIyENSt9enable_ifIXsrSt5__or_IJS1_IJSt7is_sameINSt9remove_cvIT_E4typeEaES2_IS6_sES2_IS6_iES2_IS6_lES2_IS6_xES2_IS6_nEEES1_IJS2_IS6_hES2_IS6_tES2_IS6_jES2_IS6_mES2_IS6_yES2_IS6_oEEES2_IcS6_EEE5valueESt15to_chars_resultE4typeEPcSQ_S4_i
FN:372,372,_ZSt8to_charsPcS_hi
FN:376,376,_ZSt8to_charsPcS_ji
FN:378,378,_ZSt8to_charsPcS_mi
FN:380,380,_ZSt8to_charsPcS_yi
FN:383,383,_ZSt8to_charsPcS_oi
FN:407,413,_ZNSt8__detail15__raise_and_addItEEbRT_ih
FN:458,464,_ZNSt8__detail25__from_chars_alnum_to_valILb0EEEhh
FN:458,464,_ZNSt8__detail25__from_chars_alnum_to_valILb1EEEhh
FN:527,553,_ZNSt8__detail18__from_chars_alnumILb1EtEEbRPKcS2_RT0_i
FNDA:0,_ZNSt8__detail16__to_chars_len_2IjEEjT_
FNDA:0,_ZNSt8__detail16__to_chars_len_2ImEEjT_
FNDA:0,_ZNSt8__detail16__to_chars_len_2IoEEjT_
FNDA:0,_ZNSt8__detail10__to_charsIjEESt15to_chars_resultPcS2_T_i
FNDA:0,_ZNSt8__detail10__to_charsImEESt15to_chars_resultPcS2_T_i
FNDA:0,_ZNSt8__detail10__to_charsIoEESt15to_chars_resultPcS2_T_i
FNDA:0,_ZNSt8__detail13__to_chars_16IjEENSt9enable_ifIXsrSt5__or_IJS2_IJSt7is_sameINSt9remove_cvIT_E4typeEaES3_IS7_sES3_IS7_iES3_IS7_lES3_IS7_xES3_IS7_nEEES2_IJS3_IS7_hES3_IS7_tES3_IS7_jES3_IS7_mES3_IS7_yES3_IS7_oEEES3_IcS7_EEE5valueESt15to_chars_resultE4typeEPcSR_S5_
FNDA:0,_ZNSt8__detail13__to_chars_16ImEENSt9enable_ifIXsrSt5__or_IJS2_IJSt7is_sameINSt9remove_cvIT_E4typeEaES3_IS7_sES3_IS7_iES3_IS7_lES3_IS7_xES3_IS7_nEEES2_IJS3_IS7_hES3_IS7_tES3_IS7_jES3_IS7_mES3_IS7_yES3_IS7_oEEES3_IcS7_EEE5valueESt15to_chars_resultE4typeEPcSR_S5_
FNDA:0,_ZNSt8__detail13__to_chars_16IoEENSt9enable_ifIXsrSt5__or_IJS2_IJSt7is_sameINSt9remove_cvIT_E4typeEaES3_IS7_sES3_IS7_iES3_IS7_lES3_IS7_xES3_IS7_nEEES2_IJS3_IS7_hES3_IS7_tES3_IS7_jES3_IS7_mES3_IS7_yES3_IS7_oEEES3_IcS7_EEE5valueESt15to_chars_resultE4typeEPcSR_S5_
FNDA:32,_ZNSt8__detail13__to_chars_10IjEENSt9enable_ifIXsrSt5__or_IJS2_IJSt7is_sameINSt9remove_cvIT_E4typeEaES3_IS7_sES3_IS7_iES3_IS7_lES3_IS7_xES3_IS7_nEEES2_IJS3_IS7_hES3_IS7_tES3_IS7_jES3_IS7_mES3_IS7_yES3_IS7_oEEES3_IcS7_EEE5valueESt15to_chars_resultE4typeEPcSR_S5_
FNDA:0,_ZNSt8__detail13__to_chars_10ImEENSt9enable_ifIXsrSt5__or_IJS2_IJSt7is_sameINSt9remove_cvIT_E4typeEaES3_IS7_sES3_IS7_iES3_IS7_lES3_IS7_xES3_IS7_nEEES2_IJS3_IS7_hES3_IS7_tES3_IS7_jES3_IS7_mES3_IS7_yES3_IS7_oEEES3_IcS7_EEE5valueESt15to_chars_resultE4typeEPcSR_S5_
FNDA:0,_ZNSt8__detail13__to_chars_10IoEENSt9enable_ifIXsrSt5__or_IJS2_IJSt7is_sameINSt9remove_cvIT_E4typeEaES3_IS7_sES3_IS7_iES3_IS7_lES3_IS7_xES3_IS7_nEEES2_IJS3_IS7_hES3_IS7_tES3_IS7_jES3_IS7_mES3_IS7_yES3_IS7_oEEES3_IcS7_EEE5valueESt15to_chars_resultE4typeEPcSR_S5_
FNDA:0,_ZNSt8__detail12__to_chars_8IjEENSt9enable_ifIXsrSt5__or_IJS2_IJSt7is_sameINSt9remove_cvIT_E4typeEaES3_IS7_sES3_IS7_iES3_IS7_lES3_IS7_xES3_IS7_nEEES2_IJS3_IS7_hES3_IS7_tES3_IS7_jES3_IS7_mES3_IS7_yES3_IS7_oEEES3_IcS7_EEE5valueESt15to_chars_resultE4typeEPcSR_S5_
FNDA:0,_ZNSt8__detail12__to_chars_8ImEENSt9enable_ifIXsrSt5__or_IJS2_IJSt7is_sameINSt9remove_cvIT_E4typeEaES3_IS7_sES3_IS7_iES3_IS7_lES3_IS7_xES3_IS7_nEEES2_IJS3_IS7_hES3_IS7_tES3_IS7_jES3_IS7_mES3_IS7_yES3_IS7_oEEES3_IcS7_EEE5valueESt15to_chars_resultE4typeEPcSR_S5_
FNDA:0,_ZNSt8__detail12__to_chars_8IoEENSt9enable_ifIXsrSt5__or_IJS2_IJSt7is_sameINSt9remove_cvIT_E4typeEaES3_IS7_sES3_IS7_iES3_IS7_lES3_IS7_xES3_IS7_nEEES2_IJS3_IS7_hES3_IS7_tES3_IS7_jES3_IS7_mES3_IS7_yES3_IS7_oEEES3_IcS7_EEE5valueESt15to_chars_resultE4typeEPcSR_S5_
FNDA:0,_ZNSt8__detail12__to_chars_2IjEENSt9enable_ifIXsrSt5__or_IJS2_IJSt7is_sameINSt9remove_cvIT_E4typeEaES3_IS7_sES3_IS7_iES3_IS7_lES3_IS7_xES3_IS7_nEEES2_IJS3_IS7_hES3_IS7_tES3_IS7_jES3_IS7_mES3_IS7_yES3_IS7_oEEES3_IcS7_EEE5valueESt15to_chars_resultE4typeEPcSR_S5_
FNDA:0,_ZNSt8__detail12__to_chars_2ImEENSt9enable_ifIXsrSt5__or_IJS2_IJSt7is_sameINSt9remove_cvIT_E4typeEaES3_IS7_sES3_IS7_iES3_IS7_lES3_IS7_xES3_IS7_nEEES2_IJS3_IS7_hES3_IS7_tES3_IS7_jES3_IS7_mES3_IS7_yES3_IS7_oEEES3_IcS7_EEE5valueESt15to_chars_resultE4typeEPcSR_S5_
FNDA:0,_ZNSt8__detail12__to_chars_2IoEENSt9enable_ifIXsrSt5__or_IJS2_IJSt7is_sameINSt9remove_cvIT_E4typeEaES3_IS7_sES3_IS7_iES3_IS7_lES3_IS7_xES3_IS7_nEEES2_IJS3_IS7_hES3_IS7_tES3_IS7_jES3_IS7_mES3_IS7_yES3_IS7_oEEES3_IcS7_EEE5valueESt15to_chars_resultE4typeEPcSR_S5_
FNDA:0,_ZSt12__to_chars_iIhENSt9enable_ifIXsrSt5__or_IJS1_IJSt7is_sameINSt9remove_cvIT_E4typeEaES2_IS6_sES2_IS6_iES2_IS6_lES2_IS6_xES2_IS6_nEEES1_IJS2_IS6_hES2_IS6_tES2_IS6_jES2_IS6_mES2_IS6_yES2_IS6_oEEES2_IcS6_EEE5valueESt15to_chars_resultE4typeEPcSQ_S4_i
FNDA:32,_ZSt12__to_chars_iIjENSt9enable_ifIXsrSt5__or_IJS1_IJSt7is_sameINSt9remove_cvIT_E4typeEaES2_IS6_sES2_IS6_iES2_IS6_lES2_IS6_xES2_IS6_nEEES1_IJS2_IS6_hES2_IS6_tES2_IS6_jES2_IS6_mES2_IS6_yES2_IS6_oEEES2_IcS6_EEE5valueESt15to_chars_resultE4typeEPcSQ_S4_i
FNDA:0,_ZSt12__to_chars_iImENSt9enable_ifIXsrSt5__or_IJS1_IJSt7is_sameINSt9remove_cvIT_E4typeEaES2_IS6_sES2_IS6_iES2_IS6_lES2_IS6_xES2_IS6_nEEES1_IJS2_IS6_hES2_IS6_tES2_IS6_jES2_IS6_mES2_IS6_yES2_IS6_oEEES2_IcS6_EEE5valueESt15to_chars_resultE4typeEPcSQ_S4_i
FNDA:0,_ZSt12__to_chars_iIoENSt9enable_ifIXsrSt5__or_IJS1_IJSt7is_sameINSt9remove_cvIT_E4typeEaES2_IS6_sES2_IS6_iES2_IS6_lES2_IS6_xES2_IS6_nEEES1_IJS2_IS6_hES2_IS6_tES2_IS6_jES2_IS6_mES2_IS6_yES2_IS6_oEEES2_IcS6_EEE5valueESt15to_chars_resultE4typeEPcSQ_S4_i
FNDA:0,_ZSt12__to_chars_iIyENSt9enable_ifIXsrSt5__or_IJS1_IJSt7is_sameINSt9remove_cvIT_E4typeEaES2_IS6_sES2_IS6_iES2_IS6_lES2_IS6_xES2_IS6_nEEES1_IJS2_IS6_hES2_IS6_tES2_IS6_jES2_IS6_mES2_IS6_yES2_IS6_oEEES2_IcS6_EEE5valueESt15to_chars_resultE4typeEPcSQ_S4_i
FNDA:0,_ZSt8to_charsPcS_hi
FNDA:32,_ZSt8to_charsPcS_ji
FNDA:0,_ZSt8to_charsPcS_mi
FNDA:0,_ZSt8to_charsPcS_yi
FNDA:0,_ZSt8to_charsPcS_oi
FNDA:0,_ZNSt8__detail15__raise_and_addItEEbRT_ih
FNDA:0,_ZNSt8__detail25__from_chars_alnum_to_valILb0EEEhh
FNDA:0,_ZNSt8__detail25__from_chars_alnum_to_valILb1EEEhh
FNDA:0,_ZNSt8__detail18__from_chars_alnumILb1EtEEbRPKcS2_RT0_i
FNF:32
FNH:3
DA:125,0
DA:126,0
DA:131,0
DA:137,0
DA:139,0
DA:141,0
DA:142,0
DA:143,0
DA:146,0
DA:148,0
DA:155,0
DA:157,0
DA:158,0
DA:159,0
DA:160,0
DA:162,0
DA:164,0
DA:165,0
DA:166,0
DA:171,0
DA:177,0
DA:179,0
DA:181,0
DA:182,0
DA:183,0
DA:186,0
DA:190,0
DA:191,0
DA:193,0
DA:194,0
DA:195,0
DA:196,0
DA:197,0
DA:198,0
DA:199,0
DA:201,0
DA:203,0
DA:204,0
DA:205,0
DA:206,0
DA:209,0
DA:210,0
DA:211,0
DA:212,0
DA:217,32
DA:223,32
DA:225,32
DA:227,0
DA:228,0
DA:229,0
DA:232,32
DA:233,32
DA:234,32
DA:235,32
DA:240,0
DA:245,0
DA:257,0
DA:259,0
DA:261,0
DA:262,0
DA:263,0
DA:266,0
DA:267,0
DA:269,0
DA:270,0
DA:271,0
DA:272,0
DA:273,0
DA:274,0
DA:275,0
DA:277,0
DA:279,0
DA:280,0
DA:281,0
DA:282,0
DA:285,0
DA:286,0
DA:287,0
DA:288,0
DA:293,0
DA:299,0
DA:301,0
DA:303,0
DA:304,0
DA:305,0
DA:308,0
DA:310,0
DA:312,0
DA:313,0
DA:318,0
DA:320,0
DA:321,0
DA:322,0
DA:329,32
DA:331,32
DA:334,32
DA:336,32
DA:337,0
DA:339,32
DA:341,0
DA:342,0
DA:351,32
DA:353,0
DA:354,0
DA:355,32
DA:356,32
DA:357,0
DA:358,0
DA:359,0
DA:360,0
DA:361,0
DA:362,0
DA:372,0
DA:376,32
DA:378,0
DA:380,0
DA:383,0
DA:407,0
DA:409,0
DA:410,0
DA:411,0
DA:412,0
DA:458,0
DA:461,0
DA:463,0
DA:527,0
DA:532,0
DA:533,0
DA:534,0
DA:536,0
DA:537,0
DA:538,0
DA:540,0
DA:541,0
DA:543,0
DA:544,0
DA:546,0
DA:547,0
DA:549,0
DA:552,0
LF:140
LH:16
end_of_record
TN:
SF:/usr/include/c++/13/compare
FN:283,284,_ZSteqSt15strong_orderingNSt9__cmp_cat8__unspecE
FN:292,293,_ZStltSt15strong_orderingNSt9__cmp_cat8__unspecE
FNDA:48,_ZSteqSt15strong_orderingNSt9__cmp_cat8__unspecE
FNDA:32,_ZStltSt15strong_orderingNSt9__cmp_cat8__unspecE
FNF:2
FNH:2
DA:283,48
DA:284,48
DA:292,32
DA:293,32
LF:4
LH:4
end_of_record
TN:
SF:/usr/include/c++/13/ext/alloc_traits.h
FNF:0
FNH:0
DA:106,314
DA:110,0
DA:118,0
LF:3
LH:1
end_of_record
TN:
SF:/usr/include/c++/13/format
FN:1005,1072,_ZNKSt8__format15__formatter_intIcE6formatIhNS_10_Sink_iterIcEEEENSt20basic_format_contextIT0_cE8iteratorET_RS7_
FN:1005,1072,_ZNKSt8__format15__formatter_intIcE6formatIiNS_10_Sink_iterIcEEEENSt20basic_format_contextIT0_cE8iteratorET_RS7_
FN:1005,1072,_ZNKSt8__format15__formatter_intIcE6formatIjNS_10_Sink_iterIcEEEENSt20basic_format_contextIT0_cE8iteratorET_RS7_
FN:1005,1072,_ZNKSt8__format15__formatter_intIcE6formatInNS_10_Sink_iterIcEEEENSt20basic_format_contextIT0_cE8iteratorET_RS7_
FN:1005,1072,_ZNKSt8__format15__formatter_intIcE6formatIoNS_10_Sink_iterIcEEEENSt20basic_format_contextIT0_cE8iteratorET_RS7_
FN:1005,1072,_ZNKSt8__format15__formatter_intIcE6formatIxNS_10_Sink_iterIcEEEENSt20basic_format_contextIT0_cE8iteratorET_RS7_
FN:1005,1072,_ZNKSt8__format15__formatter_intIcE6formatIyNS_10_Sink_iterIcEEEENSt20basic_format_contextIT0_cE8iteratorET_RS7_
FN:1076,1102,_ZNKSt8__format15__formatter_intIcE6formatINS_10_Sink_iterIcEEEENSt20basic_format_contextIT_cE8iteratorEbRS7_
FN:1106,1110,_ZNKSt8__format15__formatter_intIcE19_M_format_characterINS_10_Sink_iterIcEEEENSt20basic_format_contextIT_cE8iteratorEcRS7_
FN:1114,1131,_ZNSt8__format15__formatter_intIcE15_S_to_characterIhEEcT_
FN:1114,1131,_ZNSt8__format15__formatter_intIcE15_S_to_characterIiEEcT_
FN:1114,1131,_ZNSt8__format15__formatter_intIcE15_S_to_characterIjEEcT_
FN:1114,1131,_ZNSt8__format15__formatter_intIcE15_S_to_characterInEEcT_
FN:1114,1131,_ZNSt8__format15__formatter_intIcE15_S_to_characterIoEEcT_
FN:1114,1131,_ZNSt8__format15__formatter_intIcE15_S_to_characterIxEEcT_
FN:1114,1131,_ZNSt8__format15__formatter_intIcE15_S_to_characterIyEEcT_
FN:1135,1210,_ZNKSt8__format15__formatter_intIcE13_M_format_intINS_10_Sink_iterIcEEEENSt20basic_format_contextIT_cE8iteratorESt17basic_string_viewIcSt11char_traitsIcEEmRS7_
FN:1325,1418,_ZNSt8__format14__formatter_fpIcE5parseERSt26basic_format_parse_contextIcE
FN:1331,1331,_ZZNSt8__format14__formatter_fpIcE5parseERSt26basic_format_parse_contextIcEENKUlvE_clEv
FN:1335,1335,_ZZNSt8__format14__formatter_fpIcE5parseERSt26basic_format_parse_contextIcEENKUlvE0_clEv
FN:1422,1707,_ZNKSt8__format14__formatter_fpIcE6formatIDF128_NS_10_Sink_iterIcEEEENSt20basic_format_contextIT0_cE8iteratorET_RS7_
FN:1422,1707,_ZNKSt8__format14__formatter_fpIcE6formatIdNS_10_Sink_iterIcEEEENSt20basic_format_contextIT0_cE8iteratorET_RS7_
FN:1422,1707,_ZNKSt8__format14__formatter_fpIcE6formatIeNS_10_Sink_iterIcEEEENSt20basic_format_contextIT0_cE8iteratorET_RS7_
FN:1422,1707,_ZNKSt8__format14__formatter_fpIcE6formatIfNS_10_Sink_iterIcEEEENSt20basic_format_contextIT0_cE8iteratorET_RS7_
FN:1485,1485,_ZZNKSt8__format14__formatter_fpIcE6formatIDF128_NS_10_Sink_iterIcEEEENSt20basic_format_contextIT0_cE8iteratorET_RS7_ENKUlPcSB_E_clESB_SB_
FN:1485,1485,_ZZNKSt8__format14__formatter_fpIcE6formatIdNS_10_Sink_iterIcEEEENSt20basic_format_contextIT0_cE8iteratorET_RS7_ENKUlPcSB_E_clESB_SB_
FN:1485,1485,_ZZNKSt8__format14__formatter_fpIcE6formatIeNS_10_Sink_iterIcEEEENSt20basic_format_contextIT0_cE8iteratorET_RS7_ENKUlPcSB_E_clESB_SB_
FN:1485,1485,_ZZNKSt8__format14__formatter_fpIcE6formatIfNS_10_Sink_iterIcEEEENSt20basic_format_contextIT0_cE8iteratorET_RS7_ENKUlPcSB_E_clESB_SB_
FN:152,152,_ZNSt12format_errorC2EPKc
FN:1528,1528,_ZZNKSt8__format14__formatter_fpIcE6formatIDF128_NS_10_Sink_iterIcEEEENSt20basic_format_contextIT0_cE8iteratorET_RS7_ENKUlPcmE_clESB_m
FN:1528,1528,_ZZNKSt8__format14__formatter_fpIcE6formatIdNS_10_Sink_iterIcEEEENSt20basic_format_contextIT0_cE8iteratorET_RS7_ENKUlPcmE_clESB_m
FN:1528,1528,_ZZNKSt8__format14__formatter_fpIcE6formatIeNS_10_Sink_iterIcEEEENSt20basic_format_contextIT0_cE8iteratorET_RS7_ENKUlPcmE_clESB_m
FN:1528,1528,_ZZNKSt8__format14__formatter_fpIcE6formatIfNS_10_Sink_iterIcEEEENSt20basic_format_contextIT0_cE8iteratorET_RS7_ENKUlPcmE_clESB_m
FN:158,159,_ZSt20__throw_format_errorPKc
FN:167,168,_ZNSt8__format39__unmatched_left_brace_in_format_stringEv
FN:1711,1763,_ZNKSt8__format14__formatter_fpIcE11_M_localizeB5cxx11ESt17basic_string_viewIcSt11char_traitsIcEEcRKSt6locale
FN:172,173,_ZNSt8__format40__unmatched_right_brace_in_format_stringEv
FN:1744,1744,_ZZNKSt8__format14__formatter_fpIcE11_M_localizeB5cxx11ESt17basic_string_viewIcSt11char_traitsIcEEcRKSt6localeENKUlPcmE_clES9_m
FN:1767,1775,_ZNSt8__format14__formatter_fpIcE23_S_resize_and_overwriteIcZNKS1_11_M_localizeB5cxx11ESt17basic_string_viewIcSt11char_traitsIcEEcRKSt6localeEUlPcmE_EEvRNSt7__cxx1112basic_stringIT_S4_ISE_ESaISE_EEEmT0_
FN:1767,1775,_ZNSt8__format14__formatter_fpIcE23_S_resize_and_overwriteIcZNKS1_6formatIDF128_NS_10_Sink_iterIcEEEENSt20basic_format_contextIT0_cE8iteratorET_RS8_EUlPcmE_EEvRNSt7__cxx1112basic_stringISA_St11char_traitsISA_ESaISA_EEEmS7_
FN:1767,1775,_ZNSt8__format14__formatter_fpIcE23_S_resize_and_overwriteIcZNKS1_6formatIdNS_10_Sink_iterIcEEEENSt20basic_format_contextIT0_cE8iteratorET_RS8_EUlPcmE_EEvRNSt7__cxx1112basic_stringISA_St11char_traitsISA_ESaISA_EEEmS7_
FN:1767,1775,_ZNSt8__format14__formatter_fpIcE23_S_resize_and_overwriteIcZNKS1_6formatIeNS_10_Sink_iterIcEEEENSt20basic_format_contextIT0_cE8iteratorET_RS8_EUlPcmE_EEvRNSt7__cxx1112basic_stringISA_St11char_traitsISA_ESaISA_EEEmS7_
FN:1767,1775,_ZNSt8__format14__formatter_fpIcE23_S_resize_and_overwriteIcZNKS1_6formatIfNS_10_Sink_iterIcEEEENSt20basic_format_contextIT0_cE8iteratorET_RS8_EUlPcmE_EEvRNSt7__cxx1112basic_stringISA_St11char_traitsISA_ESaISA_EEEmS7_
FN:177,178,_ZNSt8__format39__conflicting_indexing_in_format_stringEv
FN:1790,1793,_ZNSt9formatterIccE5parseERSt26basic_format_parse_contextIcE
FN:1797,1809,_ZNKSt9formatterIccE6formatINSt8__format10_Sink_iterIcEEEENSt20basic_format_contextIT_cE8iteratorEcRS7_
FN:182,183,_ZNSt8__format33__invalid_arg_id_in_format_stringEv
FN:187,188,_ZNSt8__format29__failed_to_parse_format_specEv
FN:1899,1901,_ZNKSt9formatterIPKccE6formatINSt8__format10_Sink_iterIcEEEENSt20basic_format_contextIT_cE8iteratorES1_RS9_
FN:1995,1997,_ZNKSt9formatterISt17basic_string_viewIcSt11char_traitsIcEEcE6formatINSt8__format10_Sink_iterIcEEEENSt20basic_format_contextIT_cE8iteratorES3_RSB_
FN:2048,2049,_ZNKSt9formatterIbcE6formatINSt8__format10_Sink_iterIcEEEENSt20basic_format_contextIT_cE8iteratorEbRS7_
FN:2048,2049,_ZNKSt9formatterIicE6formatINSt8__format10_Sink_iterIcEEEENSt20basic_format_contextIT_cE8iteratorEiRS7_
FN:2048,2049,_ZNKSt9formatterIjcE6formatINSt8__format10_Sink_iterIcEEEENSt20basic_format_contextIT_cE8iteratorEjRS7_
FN:2048,2049,_ZNKSt9formatterIncE6formatINSt8__format10_Sink_iterIcEEEENSt20basic_format_contextIT_cE8iteratorEnRS7_
FN:2048,2049,_ZNKSt9formatterIocE6formatINSt8__format10_Sink_iterIcEEEENSt20basic_format_contextIT_cE8iteratorEoRS7_
FN:2048,2049,_ZNKSt9formatterIxcE6formatINSt8__format10_Sink_iterIcEEEENSt20basic_format_contextIT_cE8iteratorExRS7_
FN:2048,2049,_ZNKSt9formatterIycE6formatINSt8__format10_Sink_iterIcEEEENSt20basic_format_contextIT_cE8iteratorEyRS7_
FN:206,209,_ZNSt26basic_format_parse_contextIcEC1ESt17basic_string_viewIcSt11char_traitsIcEEm
FN:2092,2093,_ZNKSt9formatterIDF128_cE6formatINSt8__format10_Sink_iterIcEEEENSt20basic_format_contextIT_cE8iteratorEDF128_RS7_
FN:2092,2093,_ZNKSt9formatterIdcE6formatINSt8__format10_Sink_iterIcEEEENSt20basic_format_contextIT_cE8iteratorEdRS7_
FN:2092,2093,_ZNKSt9formatterIecE6formatINSt8__format10_Sink_iterIcEEEENSt20basic_format_contextIT_cE8iteratorEeRS7_
FN:2092,2093,_ZNKSt9formatterIfcE6formatINSt8__format10_Sink_iterIcEEEENSt20basic_format_contextIT_cE8iteratorEfRS7_
FN:2108,2169,_ZNSt9formatterIPKvcE5parseERSt26basic_format_parse_contextIcE
FN:2114,2114,_ZZNSt9formatterIPKvcE5parseERSt26basic_format_parse_contextIcEENKUlvE_clEv
FN:2118,2118,_ZZNSt9formatterIPKvcE5parseERSt26basic_format_parse_contextIcEENKUlvE0_clEv
FN:214,214,_ZNKSt26basic_format_parse_contextIcE5beginEv
FN:215,215,_ZNKSt26basic_format_parse_contextIcE3endEv
FN:2173,2227,_ZNKSt9formatterIPKvcE6formatINSt8__format10_Sink_iterIcEEEENSt20basic_format_contextIT_cE8iteratorES1_RS9_
FN:218,219,_ZNSt26basic_format_parse_contextIcE10advance_toEPKc
FN:222,234,_ZNSt26basic_format_parse_contextIcE11next_arg_idEv
FN:2360,2360,_ZNSt8__format10_Sink_iterIcEC2ERKS1_
FN:2361,2361,_ZNSt8__format10_Sink_iterIcEaSERKS1_
FN:237,246,_ZNSt26basic_format_parse_contextIcE12check_arg_idEm
FN:2448,2453,_ZNSt8__format5_SinkIcE8_M_writeEc
FN:2456,2472,_ZNSt8__format5_SinkIcE8_M_writeESt17basic_string_viewIcSt11char_traitsIcEE
FN:2509,2519,_ZNSt8__format9_Seq_sinkINSt7__cxx1112basic_stringIcSt11char_traitsIcESaIcEEEE11_M_overflowEv
FN:2536,2541,_ZNOSt8__format9_Seq_sinkINSt7__cxx1112basic_stringIcSt11char_traitsIcESaIcEEEE3getEv
FN:2564,2581,_ZNSt8__format10_Iter_sinkIcNS_10_Sink_iterIcEEE11_M_overflowEv
FN:269,294,_ZNSt8__format15__parse_integerIcEESt4pairItPKT_ES4_S4_
FN:298,317,_ZNSt8__format14__parse_arg_idIcEESt4pairItPKT_ES4_S4_
FN:3093,3097,_ZNSt16basic_format_argISt20basic_format_contextINSt8__format10_Sink_iterIcEEcEE6_M_setIiEEvT_
FN:3102,3112,_ZNSt16basic_format_argISt20basic_format_contextINSt8__format10_Sink_iterIcEEcEEC2IKiEERT_
FN:3102,3112,_ZNSt16basic_format_argISt20basic_format_contextINSt8__format10_Sink_iterIcEEcEEC2IiEERT_
FN:3124,3185,_ZNSt16basic_format_argISt20basic_format_contextINSt8__format10_Sink_iterIcEEcEE8_M_visitINS1_17_WidthPrecVisitorEEEDcOT_NS1_6_Arg_tE
FN:3124,3185,_ZNSt16basic_format_argISt20basic_format_contextINSt8__format10_Sink_iterIcEEcEE8_M_visitIZNS1_19_Formatting_scannerIS3_cE13_M_format_argEmEUlRT_E_EEDcOS9_NS1_6_Arg_tE
FN:3190,3193,_ZSt16visit_format_argINSt8__format17_WidthPrecVisitorESt20basic_format_contextINS0_10_Sink_iterIcEEcEEDcOT_St16basic_format_argIT0_E
FN:3190,3193,_ZSt16visit_format_argIZNSt8__format19_Formatting_scannerINS0_10_Sink_iterIcEEcE13_M_format_argEmEUlRT_E_St20basic_format_contextIS3_cEEDcOS5_St16basic_format_argIT0_E
FN:3202,3221,_ZNKSt8__format17_WidthPrecVisitorclIDF128_EEmRT_
FN:3202,3221,_ZNKSt8__format17_WidthPrecVisitorclINSt16basic_format_argISt20basic_format_contextINS_10_Sink_iterIcEEcEE6handleEEEmRT_
FN:3202,3221,_ZNKSt8__format17_WidthPrecVisitorclIPKcEEmRT_
FN:3202,3221,_ZNKSt8__format17_WidthPrecVisitorclIPKvEEmRT_
FN:3202,3221,_ZNKSt8__format17_WidthPrecVisitorclISt17basic_string_viewIcSt11char_traitsIcEEEEmRT_
FN:3202,3221,_ZNKSt8__format17_WidthPrecVisitorclISt9monostateEEmRT_
FN:3202,3221,_ZNKSt8__format17_WidthPrecVisitorclIbEEmRT_
FN:3202,3221,_ZNKSt8__format17_WidthPrecVisitorclIcEEmRT_
FN:3202,3221,_ZNKSt8__format17_WidthPrecVisitorclIdEEmRT_
FN:3202,3221,_ZNKSt8__format17_WidthPrecVisitorclIeEEmRT_
FN:3202,3221,_ZNKSt8__format17_WidthPrecVisitorclIfEEmRT_
FN:3202,3221,_ZNKSt8__format17_WidthPrecVisitorclIiEEmRT_
FN:3202,3221,_ZNKSt8__format17_WidthPrecVisitorclIjEEmRT_
FN:3202,3221,_ZNKSt8__format17_WidthPrecVisitorclInEEmRT_
FN:3202,3221,_ZNKSt8__format17_WidthPrecVisitorclIoEEmRT_
FN:3202,3221,_ZNKSt8__format17_WidthPrecVisitorclIxEEmRT_
FN:3202,3221,_ZNKSt8__format17_WidthPrecVisitorclIyEEmRT_
FN:3226,3227,_ZNSt8__format14__int_from_argISt20basic_format_contextINS_10_Sink_iterIcEEcEEEmRKSt16basic_format_argIT_E
FN:3232,3238,_ZNSt8__format16__pack_arg_typesILi5ELm2EEEDaRKSt5arrayINS_6_Arg_tEXT0_EE
FN:3278,3282,_ZNKSt17basic_format_argsISt20basic_format_contextINSt8__format10_Sink_iterIcEEcEE7_M_typeEm
FN:3353,3360,_ZNSt8__format10_Arg_storeISt20basic_format_contextINS_10_Sink_iterIcEEcEJiiEE11_S_make_eltIKiEENS_10_Arg_valueIS4_EERT_
FN:3353,3360,_ZNSt8__format10_Arg_storeISt20basic_format_contextINS_10_Sink_iterIcEEcEJiiEE11_S_make_eltIiEENS_10_Arg_valueIS4_EERT_
FN:3377,3405,_ZNSt17basic_format_argsISt20basic_format_contextINSt8__format10_Sink_iterIcEEcEEC2IJiiEEERKNS1_10_Arg_storeIS4_JDpT_EEE
FN:3454,3457,_ZNSt20basic_format_contextINSt8__format10_Sink_iterIcEEcEC2ESt17basic_format_argsIS3_ES2_
FN:3459,3462,_ZNSt20basic_format_contextINSt8__format10_Sink_iterIcEEcEC2ESt17basic_format_argsIS3_ES2_RKSt6locale
FN:3472,3472,_ZNSt20basic_format_contextINSt8__format10_Sink_iterIcEEcED2Ev
FN:3481,3482,_ZNKSt20basic_format_contextINSt8__format10_Sink_iterIcEEcE3argEm
FN:3485,3485,_ZNSt20basic_format_contextINSt8__format10_Sink_iterIcEEcE6localeEv
FN:3488,3488,_ZNSt20basic_format_contextINSt8__format10_Sink_iterIcEEcE3outEv
FN:3490,3490,_ZNSt20basic_format_contextINSt8__format10_Sink_iterIcEEcE10advance_toES2_
FN:3510,3512,_ZNSt8__format8_ScannerIcEC2ESt17basic_string_viewIcSt11char_traitsIcEEm
FN:3514,3514,_ZNKSt8__format8_ScannerIcE5beginEv
FN:3515,3515,_ZNKSt8__format8_ScannerIcE3endEv
FN:3518,3578,_ZNSt8__format8_ScannerIcE7_M_scanEv
FN:354,355,_ZNSt8__format10__is_digitEc
FN:357,358,_ZNSt8__format11__is_xdigitEc
FN:3581,3582,_ZNKSt8__format8_ScannerIcE10_M_fmt_strEv
FN:3584,3584,_ZNSt8__format8_ScannerIcE11_M_on_charsEPKc
FN:3586,3615,_ZNSt8__format8_ScannerIcE23_M_on_replacement_fieldEv
FN:3625,3628,_ZNSt8__format19_Formatting_scannerINS_10_Sink_iterIcEEcEC2ERSt20basic_format_contextIS2_cESt17basic_string_viewIcSt11char_traitsIcEE
FN:3636,3640,_ZNSt8__format19_Formatting_scannerINS_10_Sink_iterIcEEcE11_M_on_charsEPKc
FN:3643,3664,_ZNSt8__format19_Formatting_scannerINS_10_Sink_iterIcEEcE13_M_format_argEm
FN:3648,3648,_ZZNSt8__format19_Formatting_scannerINS_10_Sink_iterIcEEcE13_M_format_argEmENKUlRT_E_clIDF128_EEDaS5_
FN:3648,3648,_ZZNSt8__format19_Formatting_scannerINS_10_Sink_iterIcEEcE13_M_format_argEmENKUlRT_E_clINSt16basic_format_argISt20basic_format_contextIS2_cEE6handleEEEDaS5_
FN:3648,3648,_ZZNSt8__format19_Formatting_scannerINS_10_Sink_iterIcEEcE13_M_format_argEmENKUlRT_E_clIPKcEEDaS5_
FN:3648,3648,_ZZNSt8__format19_Formatting_scannerINS_10_Sink_iterIcEEcE13_M_format_argEmENKUlRT_E_clIPKvEEDaS5_
FN:3648,3648,_ZZNSt8__format19_Formatting_scannerINS_10_Sink_iterIcEEcE13_M_format_argEmENKUlRT_E_clISt17basic_string_viewIcSt11char_traitsIcEEEEDaS5_
FN:3648,3648,_ZZNSt8__format19_Formatting_scannerINS_10_Sink_iterIcEEcE13_M_format_argEmENKUlRT_E_clISt9monostateEEDaS5_
FN:3648,3648,_ZZNSt8__format19_Formatting_scannerINS_10_Sink_iterIcEEcE13_M_format_argEmENKUlRT_E_clIbEEDaS5_
FN:3648,3648,_ZZNSt8__format19_Formatting_scannerINS_10_Sink_iterIcEEcE13_M_format_argEmENKUlRT_E_clIcEEDaS5_
FN:3648,3648,_ZZNSt8__format19_Formatting_scannerINS_10_Sink_iterIcEEcE13_M_format_argEmENKUlRT_E_clIdEEDaS5_
FN:3648,3648,_ZZNSt8__format19_Formatting_scannerINS_10_Sink_iterIcEEcE13_M_format_argEmENKUlRT_E_clIeEEDaS5_
FN:3648,3648,_ZZNSt8__format19_Formatting_scannerINS_10_Sink_iterIcEEcE13_M_format_argEmENKUlRT_E_clIfEEDaS5_
FN:3648,3648,_ZZNSt8__format19_Formatting_scannerINS_10_Sink_iterIcEEcE13_M_format_argEmENKUlRT_E_clIiEEDaS5_
FN:3648,3648,_ZZNSt8__format19_Formatting_scannerINS_10_Sink_iterIcEEcE13_M_format_argEmENKUlRT_E_clIjEEDaS5_
FN:3648,3648,_ZZNSt8__format19_Formatting_scannerINS_10_Sink_iterIcEEcE13_M_format_argEmENKUlRT_E_clInEEDaS5_
FN:3648,3648,_ZZNSt8__format19_Formatting_scannerINS_10_Sink_iterIcEEcE13_M_format_argEmENKUlRT_E_clIoEEDaS5_
FN:3648,3648,_ZZNSt8__format19_Formatting_scannerINS_10_Sink_iterIcEEcE13_M_format_argEmENKUlRT_E_clIxEEDaS5_
FN:3648,3648,_ZZNSt8__format19_Formatting_scannerINS_10_Sink_iterIcEEcE13_M_format_argEmENKUlRT_E_clIyEEDaS5_
FN:3714,3736,_ZNSt8__format15__do_vformat_toINS_10_Sink_iterIcEEcSt20basic_format_contextIS2_cEEET_S5_St17basic_string_viewIT0_St11char_traitsIS7_EERKSt17basic_format_argsIT1_EPKSt6locale
FN:378,387,_ZNSt8__format5_SpecIcE8_S_alignEc
FN:3784,3789,_ZSt7vformatB5cxx11St17basic_string_viewIcSt11char_traitsIcEESt17basic_format_argsISt20basic_format_contextINSt8__format10_Sink_iterIcEEcEE
FN:3821,3822,_ZSt6formatIJRiRKiEENSt7__cxx1112basic_stringIcSt11char_traitsIcESaIcEEESt19basic_format_stringIcJDpNSt13type_identityIT_E4typeEEEDpOSB_
FN:3821,3822,_ZSt6formatIJRiS0_EENSt7__cxx1112basic_stringIcSt11char_traitsIcESaIcEEESt19basic_format_stringIcJDpNSt13type_identityIT_E4typeEEEDpOS9_
FN:391,415,_ZNSt8__format5_SpecIcE23_M_parse_fill_and_alignEPKcS3_
FN:418,427,_ZNSt8__format5_SpecIcE7_S_signEc
FN:431,439,_ZNSt8__format5_SpecIcE13_M_parse_signEPKcS3_
FN:443,451,_ZNSt8__format5_SpecIcE23_M_parse_alternate_formEPKcS3_
FN:455,463,_ZNSt8__format5_SpecIcE18_M_parse_zero_fillEPKcS3_
FN:467,500,_ZNSt8__format5_SpecIcE27_S_parse_width_or_precisionEPKcS3_RtRbRSt26basic_format_parse_contextIcE
FN:504,516,_ZNSt8__format5_SpecIcE14_M_parse_widthEPKcS3_RSt26basic_format_parse_contextIcE
FN:520,536,_ZNSt8__format5_SpecIcE18_M_parse_precisionEPKcS3_RSt26basic_format_parse_contextIcE
FN:540,548,_ZNSt8__format5_SpecIcE15_M_parse_localeEPKcS3_
FN:552,560,_ZNKSt8__format5_SpecIcE12_M_get_widthISt20basic_format_contextINS_10_Sink_iterIcEEcEEEmRT_
FN:564,572,_ZNKSt8__format5_SpecIcE16_M_get_precisionISt20basic_format_contextINS_10_Sink_iterIcEEcEEEmRT_
FN:577,588,_ZNSt8__format10__put_signIhEEPcT_NS_5_SignES1_
FN:577,588,_ZNSt8__format10__put_signIiEEPcT_NS_5_SignES1_
FN:577,588,_ZNSt8__format10__put_signIjEEPcT_NS_5_SignES1_
FN:577,588,_ZNSt8__format10__put_signInEEPcT_NS_5_SignES1_
FN:577,588,_ZNSt8__format10__put_signIoEEPcT_NS_5_SignES1_
FN:577,588,_ZNSt8__format10__put_signIxEEPcT_NS_5_SignES1_
FN:577,588,_ZNSt8__format10__put_signIyEEPcT_NS_5_SignES1_
FN:594,605,_ZNSt8__format7__writeINS_10_Sink_iterIcEEcEET_S3_St17basic_string_viewIT0_St11char_traitsIS5_EE
FN:611,661,_ZNSt8__format14__write_paddedINS_10_Sink_iterIcEEcEET_S3_St17basic_string_viewIT0_St11char_traitsIS5_EENS_6_AlignEmS5_
FN:619,619,_ZZNSt8__format14__write_paddedINS_10_Sink_iterIcEEcEET_S3_St17basic_string_viewIT0_St11char_traitsIS5_EENS_6_AlignEmS5_ENKUlmRS2_E_clEmSA_
FN:667,685,_ZNSt8__format22__write_padded_as_specIcNS_10_Sink_iterIcEEEET0_St17basic_string_viewINSt13type_identityIT_E4typeESt11char_traitsIS8_EEmRSt20basic_format_contextIS3_S6_ERKNS_5_SpecIS6_EENS_6_AlignE
FN:693,695,_ZNSt8__format16_Optional_localeC2ERKSt6locale
FN:725,725,_ZNSt8__format16_Optional_localeD2Ev
FN:728,738,_ZNSt8__format16_Optional_localeaSEOSt6locale
FN:741,749,_ZNSt8__format16_Optional_locale5valueEv
FN:767,815,_ZNSt8__format15__formatter_strIcE5parseERSt26basic_format_parse_contextIcE
FN:773,773,_ZZNSt8__format15__formatter_strIcE5parseERSt26basic_format_parse_contextIcEENKUlvE_clEv
FN:777,777,_ZZNSt8__format15__formatter_strIcE5parseERSt26basic_format_parse_contextIcEENKUlvE0_clEv
FN:819,845,_ZNKSt8__format15__formatter_strIcE6formatINS_10_Sink_iterIcEEEET_St17basic_string_viewIcSt11char_traitsIcEERSt20basic_format_contextIS5_cE
FN:867,972,_ZNSt8__format15__formatter_intIcE11_M_do_parseERSt26basic_format_parse_contextIcENS_10_Pres_typeE
FN:875,875,_ZZNSt8__format15__formatter_intIcE11_M_do_parseERSt26basic_format_parse_contextIcENS_10_Pres_typeEENKUlvE_clEv
FN:879,879,_ZZNSt8__format15__formatter_intIcE11_M_do_parseERSt26basic_format_parse_contextIcENS_10_Pres_typeEENKUlvE0_clEv
FN:976,1001,_ZNSt8__format15__formatter_intIcE8_M_parseIbEEPKcRSt26basic_format_parse_contextIcE
FN:976,1001,_ZNSt8__format15__formatter_intIcE8_M_parseIcEEPKcRSt26basic_format_parse_contextIcE
FN:976,1001,_ZNSt8__format15__formatter_intIcE8_M_parseIiEEPKcRSt26basic_format_parse_contextIcE
FN:976,1001,_ZNSt8__format15__formatter_intIcE8_M_parseIjEEPKcRSt26basic_format_parse_contextIcE
FN:976,1001,_ZNSt8__format15__formatter_intIcE8_M_parseInEEPKcRSt26basic_format_parse_contextIcE
FN:976,1001,_ZNSt8__format15__formatter_intIcE8_M_parseIoEEPKcRSt26basic_format_parse_contextIcE
FN:976,1001,_ZNSt8__format15__formatter_intIcE8_M_parseIxEEPKcRSt26basic_format_parse_contextIcE
FN:976,1001,_ZNSt8__format15__formatter_intIcE8_M_parseIyEEPKcRSt26basic_format_parse_contextIcE
FNDA:0,_ZNKSt8__format15__formatter_intIcE6formatIhNS_10_Sink_iterIcEEEENSt20basic_format_contextIT0_cE8iteratorET_RS7_
FNDA:32,_ZNKSt8__format15__formatter_intIcE6formatIiNS_10_Sink_iterIcEEEENSt20basic_format_contextIT0_cE8iteratorET_RS7_
FNDA:0,_ZNKSt8__format15__formatter_intIcE6formatIjNS_10_Sink_iterIcEEEENSt20basic_format_contextIT0_cE8iteratorET_RS7_
FNDA:0,_ZNKSt8__format15__formatter_intIcE6formatInNS_10_Sink_iterIcEEEENSt20basic_format_contextIT0_cE8iteratorET_RS7_
FNDA:0,_ZNKSt8__format15__formatter_intIcE6formatIoNS_10_Sink_iterIcEEEENSt20basic_format_contextIT0_cE8iteratorET_RS7_
FNDA:0,_ZNKSt8__format15__formatter_intIcE6formatIxNS_10_Sink_iterIcEEEENSt20basic_format_contextIT0_cE8iteratorET_RS7_
FNDA:0,_ZNKSt8__format15__formatter_intIcE6formatIyNS_10_Sink_iterIcEEEENSt20basic_format_contextIT0_cE8iteratorET_RS7_
FNDA:0,_ZNKSt8__format15__formatter_intIcE6formatINS_10_Sink_iterIcEEEENSt20basic_format_contextIT_cE8iteratorEbRS7_
FNDA:0,_ZNKSt8__format15__formatter_intIcE19_M_format_characterINS_10_Sink_iterIcEEEENSt20basic_format_contextIT_cE8iteratorEcRS7_
FNDA:0,_ZNSt8__format15__formatter_intIcE15_S_to_characterIhEEcT_
FNDA:0,_ZNSt8__format15__formatter_intIcE15_S_to_characterIiEEcT_
FNDA:0,_ZNSt8__format15__formatter_intIcE15_S_to_characterIjEEcT_
FNDA:0,_ZNSt8__format15__formatter_intIcE15_S_to_characterInEEcT_
FNDA:0,_ZNSt8__format15__formatter_intIcE15_S_to_characterIoEEcT_
FNDA:0,_ZNSt8__format15__formatter_intIcE15_S_to_characterIxEEcT_
FNDA:0,_ZNSt8__format15__formatter_intIcE15_S_to_characterIyEEcT_
FNDA:32,_ZNKSt8__format15__formatter_intIcE13_M_format_intINS_10_Sink_iterIcEEEENSt20basic_format_contextIT_cE8iteratorESt17basic_string_viewIcSt11char_traitsIcEEmRS7_
FNDA:0,_ZNSt8__format14__formatter_fpIcE5parseERSt26basic_format_parse_contextIcE
FNDA:0,_ZZNSt8__format14__formatter_fpIcE5parseERSt26basic_format_parse_contextIcEENKUlvE_clEv
FNDA:0,_ZZNSt8__format14__formatter_fpIcE5parseERSt26basic_format_parse_contextIcEENKUlvE0_clEv
FNDA:0,_ZNKSt8__format14__formatter_fpIcE6formatIDF128_NS_10_Sink_iterIcEEEENSt20basic_format_contextIT0_cE8iteratorET_RS7_
FNDA:0,_ZNKSt8__format14__formatter_fpIcE6formatIdNS_10_Sink_iterIcEEEENSt20basic_format_contextIT0_cE8iteratorET_RS7_
FNDA:0,_ZNKSt8__format14__formatter_fpIcE6formatIeNS_10_Sink_iterIcEEEENSt20basic_format_contextIT0_cE8iteratorET_RS7_
FNDA:0,_ZNKSt8__format14__formatter_fpIcE6formatIfNS_10_Sink_iterIcEEEENSt20basic_format_contextIT0_cE8iteratorET_RS7_
FNDA:0,_ZZNKSt8__format14__formatter_fpIcE6formatIDF128_NS_10_Sink_iterIcEEEENSt20basic_format_contextIT0_cE8iteratorET_RS7_ENKUlPcSB_E_clESB_SB_
FNDA:0,_ZZNKSt8__format14__formatter_fpIcE6formatIdNS_10_Sink_iterIcEEEENSt20basic_format_contextIT0_cE8iteratorET_RS7_ENKUlPcSB_E_clESB_SB_
FNDA:0,_ZZNKSt8__format14__formatter_fpIcE6formatIeNS_10_Sink_iterIcEEEENSt20basic_format_contextIT0_cE8iteratorET_RS7_ENKUlPcSB_E_clESB_SB_
FNDA:0,_ZZNKSt8__format14__formatter_fpIcE6formatIfNS_10_Sink_iterIcEEEENSt20basic_format_contextIT0_cE8iteratorET_RS7_ENKUlPcSB_E_clESB_SB_
FNDA:0,_ZNSt12format_errorC2EPKc
FNDA:0,_ZZNKSt8__format14__formatter_fpIcE6formatIDF128_NS_10_Sink_iterIcEEEENSt20basic_format_contextIT0_cE8iteratorET_RS7_ENKUlPcmE_clESB_m
FNDA:0,_ZZNKSt8__format14__formatter_fpIcE6formatIdNS_10_Sink_iterIcEEEENSt20basic_format_contextIT0_cE8iteratorET_RS7_ENKUlPcmE_clESB_m
FNDA:0,_ZZNKSt8__format14__formatter_fpIcE6formatIeNS_10_Sink_iterIcEEEENSt20basic_format_contextIT0_cE8iteratorET_RS7_ENKUlPcmE_clESB_m
FNDA:0,_ZZNKSt8__format14__formatter_fpIcE6formatIfNS_10_Sink_iterIcEEEENSt20basic_format_contextIT0_cE8iteratorET_RS7_ENKUlPcmE_clESB_m
FNDA:0,_ZSt20__throw_format_errorPKc
FNDA:0,_ZNSt8__format39__unmatched_left_brace_in_format_stringEv
FNDA:0,_ZNKSt8__format14__formatter_fpIcE11_M_localizeB5cxx11ESt17basic_string_viewIcSt11char_traitsIcEEcRKSt6locale
FNDA:0,_ZNSt8__format40__unmatched_right_brace_in_format_stringEv
FNDA:0,_ZZNKSt8__format14__formatter_fpIcE11_M_localizeB5cxx11ESt17basic_string_viewIcSt11char_traitsIcEEcRKSt6localeENKUlPcmE_clES9_m
FNDA:0,_ZNSt8__format14__formatter_fpIcE23_S_resize_and_overwriteIcZNKS1_11_M_localizeB5cxx11ESt17basic_string_viewIcSt11char_traitsIcEEcRKSt6localeEUlPcmE_EEvRNSt7__cxx1112basic_stringIT_S4_ISE_ESaISE_EEEmT0_
FNDA:0,_ZNSt8__format14__formatter_fpIcE23_S_resize_and_overwriteIcZNKS1_6formatIDF128_NS_10_Sink_iterIcEEEENSt20basic_format_contextIT0_cE8iteratorET_RS8_EUlPcmE_EEvRNSt7__cxx1112basic_stringISA_St11char_traitsISA_ESaISA_EEEmS7_
FNDA:0,_ZNSt8__format14__formatter_fpIcE23_S_resize_and_overwriteIcZNKS1_6formatIdNS_10_Sink_iterIcEEEENSt20basic_format_contextIT0_cE8iteratorET_RS8_EUlPcmE_EEvRNSt7__cxx1112basic_stringISA_St11char_traitsISA_ESaISA_EEEmS7_
FNDA:0,_ZNSt8__format14__formatter_fpIcE23_S_resize_and_overwriteIcZNKS1_6formatIeNS_10_Sink_iterIcEEEENSt20basic_format_contextIT0_cE8iteratorET_RS8_EUlPcmE_EEvRNSt7__cxx1112basic_stringISA_St11char_traitsISA_ESaISA_EEEmS7_
FNDA:0,_ZNSt8__format14__formatter_fpIcE23_S_resize_and_overwriteIcZNKS1_6formatIfNS_10_Sink_iterIcEEEENSt20basic_format_contextIT0_cE8iteratorET_RS8_EUlPcmE_EEvRNSt7__cxx1112basic_stringISA_St11char_traitsISA_ESaISA_EEEmS7_
FNDA:0,_ZNSt8__format39__conflicting_indexing_in_format_stringEv
FNDA:0,_ZNSt9formatterIccE5parseERSt26basic_format_parse_contextIcE
FNDA:0,_ZNKSt9formatterIccE6formatINSt8__format10_Sink_iterIcEEEENSt20basic_format_contextIT_cE8iteratorEcRS7_
FNDA:0,_ZNSt8__format33__invalid_arg_id_in_format_stringEv
FNDA:0,_ZNSt8__format29__failed_to_parse_format_specEv
FNDA:0,_ZNKSt9formatterIPKccE6formatINSt8__format10_Sink_iterIcEEEENSt20basic_format_contextIT_cE8iteratorES1_RS9_
FNDA:0,_ZNKSt9formatterISt17basic_string_viewIcSt11char_traitsIcEEcE6formatINSt8__format10_Sink_iterIcEEEENSt20basic_format_contextIT_cE8iteratorES3_RSB_
FNDA:0,_ZNKSt9formatterIbcE6formatINSt8__format10_Sink_iterIcEEEENSt20basic_format_contextIT_cE8iteratorEbRS7_
FNDA:32,_ZNKSt9formatterIicE6formatINSt8__format10_Sink_iterIcEEEENSt20basic_format_contextIT_cE8iteratorEiRS7_
FNDA:0,_ZNKSt9formatterIjcE6formatINSt8__format10_Sink_iterIcEEEENSt20basic_format_contextIT_cE8iteratorEjRS7_
FNDA:0,_ZNKSt9formatterIncE6formatINSt8__format10_Sink_iterIcEEEENSt20basic_format_contextIT_cE8iteratorEnRS7_
FNDA:0,_ZNKSt9formatterIocE6formatINSt8__format10_Sink_iterIcEEEENSt20basic_format_contextIT_cE8iteratorEoRS7_
FNDA:0,_ZNKSt9formatterIxcE6formatINSt8__format10_Sink_iterIcEEEENSt20basic_format_contextIT_cE8iteratorExRS7_
FNDA:0,_ZNKSt9formatterIycE6formatINSt8__format10_Sink_iterIcEEEENSt20basic_format_contextIT_cE8iteratorEyRS7_
FNDA:16,_ZNSt26basic_format_parse_contextIcEC1ESt17basic_string_viewIcSt11char_traitsIcEEm
FNDA:0,_ZNKSt9formatterIDF128_cE6formatINSt8__format10_Sink_iterIcEEEENSt20basic_format_contextIT_cE8iteratorEDF128_RS7_
FNDA:0,_ZNKSt9formatterIdcE6formatINSt8__format10_Sink_iterIcEEEENSt20basic_format_contextIT_cE8iteratorEdRS7_
FNDA:0,_ZNKSt9formatterIecE6formatINSt8__format10_Sink_iterIcEEEENSt20basic_format_contextIT_cE8iteratorEeRS7_
FNDA:0,_ZNKSt9formatterIfcE6formatINSt8__format10_Sink_iterIcEEEENSt20basic_format_contextIT_cE8iteratorEfRS7_
FNDA:0,_ZNSt9formatterIPKvcE5parseERSt26basic_format_parse_contextIcE
FNDA:0,_ZZNSt9formatterIPKvcE5parseERSt26basic_format_parse_contextIcEENKUlvE_clEv
FNDA:0,_ZZNSt9formatterIPKvcE5parseERSt26basic_format_parse_contextIcEENKUlvE0_clEv
FNDA:320,_ZNKSt26basic_format_parse_contextIcE5beginEv
FNDA:176,_ZNKSt26basic_format_parse_contextIcE3endEv
FNDA:0,_ZNKSt9formatterIPKvcE6formatINSt8__format10_Sink_iterIcEEEENSt20basic_format_contextIT_cE8iteratorES1_RS9_
FNDA:112,_ZNSt26basic_format_parse_contextIcE10advance_toEPKc
FNDA:32,_ZNSt26basic_format_parse_contextIcE11next_arg_idEv
FNDA:256,_ZNSt8__format10_Sink_iterIcEC2ERKS1_
FNDA:96,_ZNSt8__format10_Sink_iterIcEaSERKS1_
FNDA:0,_ZNSt26basic_format_parse_contextIcE12check_arg_idEm
FNDA:0,_ZNSt8__format5_SinkIcE8_M_writeEc
FNDA:80,_ZNSt8__format5_SinkIcE8_M_writeESt17basic_string_viewIcSt11char_traitsIcEE
FNDA:16,_ZNSt8__format9_Seq_sinkINSt7__cxx1112basic_stringIcSt11char_traitsIcESaIcEEEE11_M_overflowEv
FNDA:16,_ZNOSt8__format9_Seq_sinkINSt7__cxx1112basic_stringIcSt11char_traitsIcESaIcEEEE3getEv
FNDA:0,_ZNSt8__format10_Iter_sinkIcNS_10_Sink_iterIcEEE11_M_overflowEv
FNDA:0,_ZNSt8__format15__parse_integerIcEESt4pairItPKT_ES4_S4_
FNDA:0,_ZNSt8__format14__parse_arg_idIcEESt4pairItPKT_ES4_S4_
FNDA:32,_ZNSt16basic_format_argISt20basic_format_contextINSt8__format10_Sink_iterIcEEcEE6_M_setIiEEvT_
FNDA:6,_ZNSt16basic_format_argISt20basic_format_contextINSt8__format10_Sink_iterIcEEcEEC2IKiEERT_
FNDA:26,_ZNSt16basic_format_argISt20basic_format_contextINSt8__format10_Sink_iterIcEEcEEC2IiEERT_
FNDA:0,_ZNSt16basic_format_argISt20basic_format_contextINSt8__format10_Sink_iterIcEEcEE8_M_visitINS1_17_WidthPrecVisitorEEEDcOT_NS1_6_Arg_tE
FNDA:32,_ZNSt16basic_format_argISt20basic_format_contextINSt8__format10_Sink_iterIcEEcEE8_M_visitIZNS1_19_Formatting_scannerIS3_cE13_M_format_argEmEUlRT_E_EEDcOS9_NS1_6_Arg_tE
FNDA:0,_ZSt16visit_format_argINSt8__format17_WidthPrecVisitorESt20basic_format_contextINS0_10_Sink_iterIcEEcEEDcOT_St16basic_format_argIT0_E
FNDA:32,_ZSt16visit_format_argIZNSt8__format19_Formatting_scannerINS0_10_Sink_iterIcEEcE13_M_format_argEmEUlRT_E_St20basic_format_contextIS3_cEEDcOS5_St16basic_format_argIT0_E
FNDA:0,_ZNKSt8__format17_WidthPrecVisitorclIDF128_EEmRT_
FNDA:0,_ZNKSt8__format17_WidthPrecVisitorclINSt16basic_format_argISt20basic_format_contextINS_10_Sink_iterIcEEcEE6handleEEEmRT_
FNDA:0,_ZNKSt8__format17_WidthPrecVisitorclIPKcEEmRT_
FNDA:0,_ZNKSt8__format17_WidthPrecVisitorclIPKvEEmRT_
FNDA:0,_ZNKSt8__format17_WidthPrecVisitorclISt17basic_string_viewIcSt11char_traitsIcEEEEmRT_
FNDA:0,_ZNKSt8__format17_WidthPrecVisitorclISt9monostateEEmRT_
FNDA:0,_ZNKSt8__format17_WidthPrecVisitorclIbEEmRT_
FNDA:0,_ZNKSt8__format17_WidthPrecVisitorclIcEEmRT_
FNDA:0,_ZNKSt8__format17_WidthPrecVisitorclIdEEmRT_
FNDA:0,_ZNKSt8__format17_WidthPrecVisitorclIeEEmRT_
FNDA:0,_ZNKSt8__format17_WidthPrecVisitorclIfEEmRT_
FNDA:0,_ZNKSt8__format17_WidthPrecVisitorclIiEEmRT_
FNDA:0,_ZNKSt8__format17_WidthPrecVisitorclIjEEmRT_
FNDA:0,_ZNKSt8__format17_WidthPrecVisitorclInEEmRT_
FNDA:0,_ZNKSt8__format17_WidthPrecVisitorclIoEEmRT_
FNDA:0,_ZNKSt8__format17_WidthPrecVisitorclIxEEmRT_
FNDA:0,_ZNKSt8__format17_WidthPrecVisitorclIyEEmRT_
FNDA:0,_ZNSt8__format14__int_from_argISt20basic_format_contextINS_10_Sink_iterIcEEcEEEmRKSt16basic_format_argIT_E
FNDA:16,_ZNSt8__format16__pack_arg_typesILi5ELm2EEEDaRKSt5arrayINS_6_Arg_tEXT0_EE
FNDA:32,_ZNKSt17basic_format_argsISt20basic_format_contextINSt8__format10_Sink_iterIcEEcEE7_M_typeEm
FNDA:6,_ZNSt8__format10_Arg_storeISt20basic_format_contextINS_10_Sink_iterIcEEcEJiiEE11_S_make_eltIKiEENS_10_Arg_valueIS4_EERT_
FNDA:26,_ZNSt8__format10_Arg_storeISt20basic_format_contextINS_10_Sink_iterIcEEcEJiiEE11_S_make_eltIiEENS_10_Arg_valueIS4_EERT_
FNDA:16,_ZNSt17basic_format_argsISt20basic_format_contextINSt8__format10_Sink_iterIcEEcEEC2IJiiEEERKNS1_10_Arg_storeIS4_JDpT_EEE
FNDA:16,_ZNSt20basic_format_contextINSt8__format10_Sink_iterIcEEcEC2ESt17basic_format_argsIS3_ES2_
FNDA:0,_ZNSt20basic_format_contextINSt8__format10_Sink_iterIcEEcEC2ESt17basic_format_argsIS3_ES2_RKSt6locale
FNDA:16,_ZNSt20basic_format_contextINSt8__format10_Sink_iterIcEEcED2Ev
FNDA:32,_ZNKSt20basic_format_contextINSt8__format10_Sink_iterIcEEcE3argEm
FNDA:0,_ZNSt20basic_format_contextINSt8__format10_Sink_iterIcEEcE6localeEv
FNDA:96,_ZNSt20basic_format_contextINSt8__format10_Sink_iterIcEEcE3outEv
FNDA:80,_ZNSt20basic_format_contextINSt8__format10_Sink_iterIcEEcE10advance_toES2_
FNDA:16,_ZNSt8__format8_ScannerIcEC2ESt17basic_string_viewIcSt11char_traitsIcEEm
FNDA:288,_ZNKSt8__format8_ScannerIcE5beginEv
FNDA:144,_ZNKSt8__format8_ScannerIcE3endEv
FNDA:16,_ZNSt8__format8_ScannerIcE7_M_scanEv
FNDA:0,_ZNSt8__format10__is_digitEc
FNDA:0,_ZNSt8__format11__is_xdigitEc
FNDA:80,_ZNKSt8__format8_ScannerIcE10_M_fmt_strEv
FNDA:0,_ZNSt8__format8_ScannerIcE11_M_on_charsEPKc
FNDA:32,_ZNSt8__format8_ScannerIcE23_M_on_replacement_fieldEv
FNDA:16,_ZNSt8__format19_Formatting_scannerINS_10_Sink_iterIcEEcEC2ERSt20basic_format_contextIS2_cESt17basic_string_viewIcSt11char_traitsIcEE
FNDA:48,_ZNSt8__format19_Formatting_scannerINS_10_Sink_iterIcEEcE11_M_on_charsEPKc
FNDA:32,_ZNSt8__format19_Formatting_scannerINS_10_Sink_iterIcEEcE13_M_format_argEm
FNDA:0,_ZZNSt8__format19_Formatting_scannerINS_10_Sink_iterIcEEcE13_M_format_argEmENKUlRT_E_clIDF128_EEDaS5_
FNDA:0,_ZZNSt8__format19_Formatting_scannerINS_10_Sink_iterIcEEcE13_M_format_argEmENKUlRT_E_clINSt16basic_format_argISt20basic_format_contextIS2_cEE6handleEEEDaS5_
FNDA:0,_ZZNSt8__format19_Formatting_scannerINS_10_Sink_iterIcEEcE13_M_format_argEmENKUlRT_E_clIPKcEEDaS5_
FNDA:0,_ZZNSt8__format19_Formatting_scannerINS_10_Sink_iterIcEEcE13_M_format_argEmENKUlRT_E_clIPKvEEDaS5_
FNDA:0,_ZZNSt8__format19_Formatting_scannerINS_10_Sink_iterIcEEcE13_M_format_argEmENKUlRT_E_clISt17basic_string_viewIcSt11char_traitsIcEEEEDaS5_
FNDA:0,_ZZNSt8__format19_Formatting_scannerINS_10_Sink_iterIcEEcE13_M_format_argEmENKUlRT_E_clISt9monostateEEDaS5_
FNDA:0,_ZZNSt8__format19_Formatting_scannerINS_10_Sink_iterIcEEcE13_M_format_argEmENKUlRT_E_clIbEEDaS5_
FNDA:0,_ZZNSt8__format19_Formatting_scannerINS_10_Sink_iterIcEEcE13_M_format_argEmENKUlRT_E_clIcEEDaS5_
FNDA:0,_ZZNSt8__format19_Formatting_scannerINS_10_Sink_iterIcEEcE13_M_format_argEmENKUlRT_E_clIdEEDaS5_
FNDA:0,_ZZNSt8__format19_Formatting_scannerINS_10_Sink_iterIcEEcE13_M_format_argEmENKUlRT_E_clIeEEDaS5_
FNDA:0,_ZZNSt8__format19_Formatting_scannerINS_10_Sink_iterIcEEcE13_M_format_argEmENKUlRT_E_clIfEEDaS5_
FNDA:32,_ZZNSt8__format19_Formatting_scannerINS_10_Sink_iterIcEEcE13_M_format_argEmENKUlRT_E_clIiEEDaS5_
FNDA:0,_ZZNSt8__format19_Formatting_scannerINS_10_Sink_iterIcEEcE13_M_format_argEmENKUlRT_E_clIjEEDaS5_
FNDA:0,_ZZNSt8__format19_Formatting_scannerINS_10_Sink_iterIcEEcE13_M_format_argEmENKUlRT_E_clInEEDaS5_
FNDA:0,_ZZNSt8__format19_Formatting_scannerINS_10_Sink_iterIcEEcE13_M_format_argEmENKUlRT_E_clIoEEDaS5_
FNDA:0,_ZZNSt8__format19_Formatting_scannerINS_10_Sink_iterIcEEcE13_M_format_argEmENKUlRT_E_clIxEEDaS5_
FNDA:0,_ZZNSt8__format19_Formatting_scannerINS_10_Sink_iterIcEEcE13_M_format_argEmENKUlRT_E_clIyEEDaS5_
FNDA:16,_ZNSt8__format15__do_vformat_toINS_10_Sink_iterIcEEcSt20basic_format_contextIS2_cEEET_S5_St17basic_string_viewIT0_St11char_traitsIS7_EERKSt17basic_format_argsIT1_EPKSt6locale
FNDA:0,_ZNSt8__format5_SpecIcE8_S_alignEc
FNDA:16,_ZSt7vformatB5cxx11St17basic_string_viewIcSt11char_traitsIcEESt17basic_format_argsISt20basic_format_contextINSt8__format10_Sink_iterIcEEcEE
FNDA:6,_ZSt6formatIJRiRKiEENSt7__cxx1112basic_stringIcSt11char_traitsIcESaIcEEESt19basic_format_stringIcJDpNSt13type_identityIT_E4typeEEEDpOSB_
FNDA:10,_ZSt6formatIJRiS0_EENSt7__cxx1112basic_stringIcSt11char_traitsIcESaIcEEESt19basic_format_stringIcJDpNSt13type_identityIT_E4typeEEEDpOS9_
FNDA:0,_ZNSt8__format5_SpecIcE23_M_parse_fill_and_alignEPKcS3_
FNDA:0,_ZNSt8__format5_SpecIcE7_S_signEc
FNDA:0,_ZNSt8__format5_SpecIcE13_M_parse_signEPKcS3_
FNDA:0,_ZNSt8__format5_SpecIcE23_M_parse_alternate_formEPKcS3_
FNDA:0,_ZNSt8__format5_SpecIcE18_M_parse_zero_fillEPKcS3_
FNDA:0,_ZNSt8__format5_SpecIcE27_S_parse_width_or_precisionEPKcS3_RtRbRSt26basic_format_parse_contextIcE
FNDA:0,_ZNSt8__format5_SpecIcE14_M_parse_widthEPKcS3_RSt26basic_format_parse_contextIcE
FNDA:0,_ZNSt8__format5_SpecIcE18_M_parse_precisionEPKcS3_RSt26basic_format_parse_contextIcE
FNDA:0,_ZNSt8__format5_SpecIcE15_M_parse_localeEPKcS3_
FNDA:32,_ZNKSt8__format5_SpecIcE12_M_get_widthISt20basic_format_contextINS_10_Sink_iterIcEEcEEEmRT_
FNDA:0,_ZNKSt8__format5_SpecIcE16_M_get_precisionISt20basic_format_contextINS_10_Sink_iterIcEEcEEEmRT_
FNDA:0,_ZNSt8__format10__put_signIhEEPcT_NS_5_SignES1_
FNDA:32,_ZNSt8__format10__put_signIiEEPcT_NS_5_SignES1_
FNDA:0,_ZNSt8__format10__put_signIjEEPcT_NS_5_SignES1_
FNDA:0,_ZNSt8__format10__put_signInEEPcT_NS_5_SignES1_
FNDA:0,_ZNSt8__format10__put_signIoEEPcT_NS_5_SignES1_
FNDA:0,_ZNSt8__format10__put_signIxEEPcT_NS_5_SignES1_
FNDA:0,_ZNSt8__format10__put_signIyEEPcT_NS_5_SignES1_
FNDA:80,_ZNSt8__format7__writeINS_10_Sink_iterIcEEcEET_S3_St17basic_string_viewIT0_St11char_traitsIS5_EE
FNDA:0,_ZNSt8__format14__write_paddedINS_10_Sink_iterIcEEcEET_S3_St17basic_string_viewIT0_St11char_traitsIS5_EENS_6_AlignEmS5_
FNDA:0,_ZZNSt8__format14__write_paddedINS_10_Sink_iterIcEEcEET_S3_St17basic_string_viewIT0_St11char_traitsIS5_EENS_6_AlignEmS5_ENKUlmRS2_E_clEmSA_
FNDA:0,_ZNSt8__format22__write_padded_as_specIcNS_10_Sink_iterIcEEEET0_St17basic_string_viewINSt13type_identityIT_E4typeESt11char_traitsIS8_EEmRSt20basic_format_contextIS3_S6_ERKNS_5_SpecIS6_EENS_6_AlignE
FNDA:0,_ZNSt8__format16_Optional_localeC2ERKSt6locale
FNDA:48,_ZNSt8__format16_Optional_localeD2Ev
FNDA:0,_ZNSt8__format16_Optional_localeaSEOSt6locale
FNDA:0,_ZNSt8__format16_Optional_locale5valueEv
FNDA:0,_ZNSt8__format15__formatter_strIcE5parseERSt26basic_format_parse_contextIcE
FNDA:0,_ZZNSt8__format15__formatter_strIcE5parseERSt26basic_format_parse_contextIcEENKUlvE_clEv
FNDA:0,_ZZNSt8__format15__formatter_strIcE5parseERSt26basic_format_parse_contextIcEENKUlvE0_clEv
FNDA:0,_ZNKSt8__format15__formatter_strIcE6formatINS_10_Sink_iterIcEEEET_St17basic_string_viewIcSt11char_traitsIcEERSt20basic_format_contextIS5_cE
FNDA:32,_ZNSt8__format15__formatter_intIcE11_M_do_parseERSt26basic_format_parse_contextIcENS_10_Pres_typeE
FNDA:32,_ZZNSt8__format15__formatter_intIcE11_M_do_parseERSt26basic_format_parse_contextIcENS_10_Pres_typeEENKUlvE_clEv
FNDA:32,_ZZNSt8__format15__formatter_intIcE11_M_do_parseERSt26basic_format_parse_contextIcENS_10_Pres_typeEENKUlvE0_clEv
FNDA:0,_ZNSt8__format15__formatter_intIcE8_M_parseIbEEPKcRSt26basic_format_parse_contextIcE
FNDA:0,_ZNSt8__format15__formatter_intIcE8_M_parseIcEEPKcRSt26basic_format_parse_contextIcE
FNDA:32,_ZNSt8__format15__formatter_intIcE8_M_parseIiEEPKcRSt26basic_format_parse_contextIcE
FNDA:0,_ZNSt8__format15__formatter_intIcE8_M_parseIjEEPKcRSt26basic_format_parse_contextIcE
FNDA:0,_ZNSt8__format15__formatter_intIcE8_M_parseInEEPKcRSt26basic_format_parse_contextIcE
FNDA:0,_ZNSt8__format15__formatter_intIcE8_M_parseIoEEPKcRSt26basic_format_parse_contextIcE
FNDA:0,_ZNSt8__format15__formatter_intIcE8_M_parseIxEEPKcRSt26basic_format_parse_contextIcE
FNDA:0,_ZNSt8__format15__formatter_intIcE8_M_parseIyEEPKcRSt26basic_format_parse_contextIcE
FNF:192
FNH:50
DA:123,16
DA:152,0
DA:158,0
DA:159,0
DA:167,0
DA:168,0
DA:172,0
DA:173,0
DA:177,0
DA:178,0
DA:182,0
DA:183,0
DA:187,0
DA:188,0
DA:206,16
DA:208,16
DA:209,16
DA:214,320
DA:215,176
DA:218,112
DA:219,112
DA:222,32
DA:224,32
DA:225,0
DA:226,32
DA:230,32
DA:231,0
DA:232,0
DA:233,32
DA:237,0
DA:239,0
DA:240,0
DA:241,0
DA:243,0
DA:244,0
DA:245,0
DA:246,0
DA:269,0
DA:271,0
DA:272,0
DA:276,0
DA:277,0
DA:279,0
DA:280,0
DA:281,0
DA:293,0
DA:298,0
DA:300,0
DA:301,0
DA:303,0
DA:304,0
DA:306,0
DA:308,0
DA:309,0
DA:311,0
DA:312,0
DA:314,0
DA:316,0
DA:354,0
DA:355,0
DA:357,0
DA:358,0
DA:378,0
DA:380,0
DA:382,0
DA:383,0
DA:384,0
DA:385,0
DA:391,0
DA:393,0
DA:397,0
DA:399,0
DA:401,0
DA:402,0
DA:403,0
DA:407,0
DA:409,0
DA:410,0
DA:411,0
DA:414,0
DA:418,0
DA:420,0
DA:422,0
DA:423,0
DA:424,0
DA:425,0
DA:431,0
DA:433,0
DA:435,0
DA:436,0
DA:438,0
DA:443,0
DA:445,0
DA:447,0
DA:448,0
DA:450,0
DA:455,0
DA:457,0
DA:459,0
DA:460,0
DA:462,0
DA:467,0
DA:471,0
DA:473,0
DA:474,0
DA:475,0
DA:477,0
DA:478,0
DA:480,0
DA:482,0
DA:483,0
DA:484,0
DA:485,0
DA:486,0
DA:487,0
DA:490,0
DA:491,0
DA:492,0
DA:493,0
DA:494,0
DA:495,0
DA:497,0
DA:499,0
DA:504,0
DA:507,0
DA:508,0
DA:509,0
DA:511,0
DA:513,0
DA:514,0
DA:515,0
DA:520,0
DA:523,0
DA:524,0
DA:526,0
DA:527,0
DA:528,0
DA:529,0
DA:531,0
DA:532,0
DA:534,0
DA:535,0
DA:540,0
DA:542,0
DA:544,0
DA:545,0
DA:547,0
DA:552,32
DA:554,32
DA:555,32
DA:556,0
DA:557,32
DA:558,0
DA:559,32
DA:564,0
DA:566,0
DA:567,0
DA:568,0
DA:569,0
DA:570,0
DA:571,0
DA:577,32
DA:579,32
DA:580,8
DA:581,24
DA:582,0
DA:583,24
DA:584,0
DA:586,24
DA:587,32
DA:594,80
DA:598,80
DA:599,160
DA:604,80
DA:611,0
DA:614,0
DA:616,0
DA:617,0
DA:619,0
DA:620,0
DA:621,0
DA:622,0
DA:624,0
DA:625,0
DA:627,0
DA:628,0
DA:632,0
DA:634,0
DA:635,0
DA:636,0
DA:638,0
DA:640,0
DA:641,0
DA:642,0
DA:646,0
DA:647,0
DA:648,0
DA:650,0
DA:651,0
DA:653,0
DA:654,0
DA:656,0
DA:657,0
DA:658,0
DA:660,0
DA:667,0
DA:673,0
DA:675,0
DA:676,0
DA:678,0
DA:680,0
DA:681,0
DA:683,0
DA:684,0
DA:691,0
DA:693,0
DA:694,0
DA:695,0
DA:725,48
DA:728,0
DA:730,0
DA:731,0
DA:734,0
DA:735,0
DA:737,0
DA:741,0
DA:743,0
DA:745,0
DA:746,0
DA:748,0
DA:767,0
DA:769,0
DA:770,0
DA:771,0
DA:773,0
DA:774,0
DA:777,0
DA:778,0
DA:780,0
DA:781,0
DA:783,0
DA:786,0
DA:787,0
DA:789,0
DA:790,0
DA:791,0
DA:793,0
DA:794,0
DA:795,0
DA:797,0
DA:798,0
DA:799,0
DA:801,0
DA:802,0
DA:811,0
DA:812,0
DA:814,0
DA:819,0
DA:822,0
DA:827,0
DA:828,0
DA:829,0
DA:831,0
DA:833,0
DA:835,0
DA:836,0
DA:838,0
DA:839,0
DA:843,0
DA:844,0
DA:867,32
DA:869,32
DA:870,32
DA:872,32
DA:873,32
DA:875,96
DA:876,32
DA:879,64
DA:880,32
DA:882,32
DA:883,32
DA:885,0
DA:888,32
DA:889,32
DA:891,0
DA:892,0
DA:893,0
DA:895,0
DA:896,0
DA:897,0
DA:899,0
DA:900,0
DA:901,0
DA:903,0
DA:904,0
DA:905,0
DA:907,0
DA:908,0
DA:909,0
DA:911,0
DA:912,0
DA:913,0
DA:915,0
DA:917,0
DA:918,0
DA:919,0
DA:920,0
DA:921,0
DA:922,0
DA:923,0
DA:924,0
DA:925,0
DA:928,0
DA:930,0
DA:931,0
DA:933,0
DA:934,0
DA:935,0
DA:936,0
DA:937,0
DA:938,0
DA:939,0
DA:940,0
DA:941,0
DA:942,0
DA:943,0
DA:944,0
DA:945,0
DA:946,0
DA:947,0
DA:948,0
DA:949,0
DA:950,0
DA:951,0
DA:953,0
DA:954,0
DA:956,0
DA:968,0
DA:969,0
DA:971,0
DA:976,32
DA:980,0
DA:981,0
DA:982,0
DA:983,0
DA:986,0
DA:990,0
DA:991,0
DA:992,0
DA:994,0
DA:997,0
DA:1000,32
DA:1005,32
DA:1007,32
DA:1008,0
DA:1011,32
DA:1013,32
DA:1015,32
DA:1016,8
DA:1018,24
DA:1020,32
DA:1021,32
DA:1022,32
DA:1024,32
DA:1026,0
DA:1028,0
DA:1029,0
DA:1030,0
DA:1035,32
DA:1039,32
DA:1040,32
DA:1041,0
DA:1042,0
DA:1043,0
DA:1044,0
DA:1045,0
DA:1046,0
DA:1048,0
DA:1049,0
DA:1050,0
DA:1051,0
DA:1053,0
DA:1057,0
DA:1058,0
DA:1059,0
DA:1062,32
DA:1064,0
DA:1065,0
DA:1068,32
DA:1070,64
DA:1071,64
DA:1076,0
DA:1078,0
DA:1079,0
DA:1080,0
DA:1081,0
DA:1083,0
DA:1085,0
DA:1087,0
DA:1088,0
DA:1089,0
DA:1094,0
DA:1097,0
DA:1100,0
DA:1101,0
DA:1102,0
DA:1106,0
DA:1109,0
DA:1114,0
DA:1119,0
DA:1120,0
DA:1127,0
DA:1128,0
DA:1129,0
DA:1135,32
DA:1138,32
DA:1142,32
DA:1144,32
DA:1155,32
DA:1158,0
DA:1159,0
DA:1160,0
DA:1162,0
DA:1163,0
DA:1164,0
DA:1166,0
DA:1167,0
DA:1170,0
DA:1171,0
DA:1172,0
DA:1173,0
DA:1174,0
DA:1175,0
DA:1178,0
DA:1180,0
DA:1183,32
DA:1184,32
DA:1186,0
DA:1187,0
DA:1189,0
DA:1190,0
DA:1191,0
DA:1193,0
DA:1194,0
DA:1196,0
DA:1198,0
DA:1200,0
DA:1202,0
DA:1206,0
DA:1208,0
DA:1209,0
DA:1210,32
DA:1325,0
DA:1327,0
DA:1328,0
DA:1329,0
DA:1331,0
DA:1332,0
DA:1335,0
DA:1336,0
DA:1338,0
DA:1339,0
DA:1341,0
DA:1344,0
DA:1345,0
DA:1347,0
DA:1348,0
DA:1349,0
DA:1351,0
DA:1352,0
DA:1353,0
DA:1355,0
DA:1356,0
DA:1357,0
DA:1359,0
DA:1360,0
DA:1361,0
DA:1363,0
DA:1365,0
DA:1366,0
DA:1367,0
DA:1370,0
DA:1371,0
DA:1372,0
DA:1374,0
DA:1375,0
DA:1376,0
DA:1378,0
DA:1380,0
DA:1381,0
DA:1382,0
DA:1383,0
DA:1384,0
DA:1385,0
DA:1386,0
DA:1387,0
DA:1388,0
DA:1389,0
DA:1390,0
DA:1391,0
DA:1392,0
DA:1393,0
DA:1394,0
DA:1395,0
DA:1396,0
DA:1397,0
DA:1398,0
DA:1399,0
DA:1400,0
DA:1401,0
DA:1402,0
DA:1403,0
DA:1404,0
DA:1405,0
DA:1406,0
DA:1407,0
DA:1408,0
DA:1409,0
DA:1410,0
DA:1411,0
DA:1414,0
DA:1415,0
DA:1417,0
DA:1422,0
DA:1424,0
DA:1426,0
DA:1428,0
DA:1429,0
DA:1430,0
DA:1431,0
DA:1433,0
DA:1434,0
DA:1436,0
DA:1437,0
DA:1438,0
DA:1439,0
DA:1441,0
DA:1443,0
DA:1444,0
DA:1445,0
DA:1447,0
DA:1448,0
DA:1449,0
DA:1450,0
DA:1451,0
DA:1452,0
DA:1453,0
DA:1454,0
DA:1456,0
DA:1457,0
DA:1458,0
DA:1459,0
DA:1460,0
DA:1461,0
DA:1463,0
DA:1464,0
DA:1465,0
DA:1466,0
DA:1467,0
DA:1468,0
DA:1469,0
DA:1471,0
DA:1472,0
DA:1473,0
DA:1474,0
DA:1475,0
DA:1476,0
DA:1477,0
DA:1478,0
DA:1479,0
DA:1480,0
DA:1481,0
DA:1485,0
DA:1486,0
DA:1487,0
DA:1488,0
DA:1489,0
DA:1491,0
DA:1495,0
DA:1497,0
DA:1501,0
DA:1502,0
DA:1509,0
DA:1511,0
DA:1513,0
DA:1515,0
DA:1516,0
DA:1517,0
DA:1520,0
DA:1522,0
DA:1523,0
DA:1524,0
DA:1528,0
DA:1530,0
DA:1531,0
DA:1534,0
DA:1536,0
DA:1537,0
DA:1539,0
DA:1543,0
DA:1545,0
DA:1546,0
DA:1549,0
DA:1551,0
DA:1553,0
DA:1554,0
DA:1555,0
DA:1556,0
DA:1558,0
DA:1561,0
DA:1565,0
DA:1567,0
DA:1569,0
DA:1571,0
DA:1572,0
DA:1574,0
DA:1575,0
DA:1576,0
DA:1579,0
DA:1582,0
DA:1584,0
DA:1589,0
DA:1594,0
DA:1595,0
DA:1596,0
DA:1597,0
DA:1598,0
DA:1601,0
DA:1606,0
DA:1609,0
DA:1611,0
DA:1615,0
DA:1616,0
DA:1617,0
DA:1618,0
DA:1619,0
DA:1620,0
DA:1621,0
DA:1625,0
DA:1626,0
DA:1628,0
DA:1629,0
DA:1630,0
DA:1631,0
DA:1632,0
DA:1633,0
DA:1637,0
DA:1638,0
DA:1639,0
DA:1641,0
DA:1651,0
DA:1652,0
DA:1654,0
DA:1669,0
DA:1672,0
DA:1675,0
DA:1676,0
DA:1679,0
DA:1681,0
DA:1682,0
DA:1684,0
DA:1685,0
DA:1687,0
DA:1688,0
DA:1689,0
DA:1691,0
DA:1692,0
DA:1694,0
DA:1696,0
DA:1698,0
DA:1699,0
DA:1703,0
DA:1705,0
DA:1706,0
DA:1707,0
DA:1711,0
DA:1714,0
DA:1716,0
DA:1717,0
DA:1719,0
DA:1720,0
DA:1721,0
DA:1726,0
DA:1727,0
DA:1736,0
DA:1737,0
DA:1739,0
DA:1740,0
DA:1741,0
DA:1742,0
DA:1743,0
DA:1744,0
DA:1745,0
DA:1747,0
DA:1748,0
DA:1750,0
DA:1752,0
DA:1753,0
DA:1754,0
DA:1756,0
DA:1757,0
DA:1759,0
DA:1761,0
DA:1762,0
DA:1763,0
DA:1767,0
DA:1772,0
DA:1773,0
DA:1775,0
DA:1790,0
DA:1792,0
DA:1797,0
DA:1799,0
DA:1800,0
DA:1801,0
DA:1802,0
DA:1805,0
DA:1808,0
DA:1894,0
DA:1899,0
DA:1901,0
DA:1991,0
DA:1995,0
DA:1997,0
DA:2043,32
DA:2048,32
DA:2049,32
DA:2088,0
DA:2092,0
DA:2093,0
DA:2108,0
DA:2110,0
DA:2111,0
DA:2112,0
DA:2114,0
DA:2115,0
DA:2118,0
DA:2119,0
DA:2121,0
DA:2122,0
DA:2124,0
DA:2127,0
DA:2128,0
DA:2130,0
DA:2131,0
DA:2132,0
DA:2143,0
DA:2144,0
DA:2145,0
DA:2148,0
DA:2150,0
DA:2152,0
DA:2153,0
DA:2155,0
DA:2159,0
DA:2160,0
DA:2165,0
DA:2166,0
DA:2168,0
DA:2173,0
DA:2175,0
DA:2177,0
DA:2179,0
DA:2180,0
DA:2181,0
DA:2183,0
DA:2185,0
DA:2186,0
DA:2188,0
DA:2195,0
DA:2197,0
DA:2208,0
DA:2210,0
DA:2211,0
DA:2212,0
DA:2214,0
DA:2216,0
DA:2217,0
DA:2218,0
DA:2219,0
DA:2221,0
DA:2225,0
DA:2226,0
DA:2360,256
DA:2361,96
DA:2365,16
DA:2371,0
DA:2372,0
DA:2379,80
DA:2380,80
DA:2385,0
DA:2389,0
DA:2393,0
DA:2416,32
DA:2417,32
DA:2418,32
DA:2424,32
DA:2430,80
DA:2436,16
DA:2448,0
DA:2450,0
DA:2451,0
DA:2452,0
DA:2453,0
DA:2456,80
DA:2458,80
DA:2459,80
DA:2461,0
DA:2462,0
DA:2463,0
DA:2464,0
DA:2465,0
DA:2467,80
DA:2469,80
DA:2470,80
DA:2472,80
DA:2481,16
DA:2493,32
DA:2494,64
DA:2495,32
DA:2509,16
DA:2511,16
DA:2512,16
DA:2513,0
DA:2515,16
DA:2518,16
DA:2526,16
DA:2527,16
DA:2536,16
DA:2538,32
DA:2539,16
DA:2540,16
DA:2564,0
DA:2566,0
DA:2567,0
DA:2568,0
DA:2569,0
DA:2571,0
DA:2572,0
DA:2573,0
DA:2574,0
DA:2576,0
DA:2577,0
DA:2579,0
DA:2580,0
DA:2581,0
DA:2586,16
DA:2587,32
DA:2588,16
DA:2762,64
DA:2780,32
DA:2841,64
DA:2842,32
DA:2904,0
DA:2905,0
DA:2906,0
DA:2910,32
DA:3093,32
DA:3095,32
DA:3096,32
DA:3097,32
DA:3102,32
DA:3103,32
DA:3111,32
DA:3112,32
DA:3124,32
DA:3127,32
DA:3129,0
DA:3130,0
DA:3131,0
DA:3132,0
DA:3133,0
DA:3134,0
DA:3135,32
DA:3136,32
DA:3137,0
DA:3138,0
DA:3139,0
DA:3140,0
DA:3141,0
DA:3142,0
DA:3144,0
DA:3145,0
DA:3146,0
DA:3147,0
DA:3149,0
DA:3150,0
DA:3158,0
DA:3159,0
DA:3160,0
DA:3161,0
DA:3162,0
DA:3163,0
DA:3164,0
DA:3166,0
DA:3167,0
DA:3170,0
DA:3171,0
DA:3172,0
DA:3173,0
DA:3177,0
DA:3178,0
DA:3181,0
DA:3183,0
DA:3190,32
DA:3192,32
DA:3202,0
DA:3205,0
DA:3214,0
DA:3216,0
DA:3217,0
DA:3219,0
DA:3226,0
DA:3227,0
DA:3232,16
DA:3234,16
DA:3235,48
DA:3236,32
DA:3237,16
DA:3278,32
DA:3280,32
DA:3281,32
DA:3305,32
DA:3307,32
DA:3308,32
DA:3310,0
DA:3311,0
DA:3312,32
DA:3353,32
DA:3355,32
DA:3357,32
DA:3365,16
DA:3366,16
DA:3367,16
DA:3377,16
DA:3389,16
DA:3392,16
DA:3394,16
DA:3405,16
DA:3416,16
DA:3454,16
DA:3456,16
DA:3457,16
DA:3459,0
DA:3461,0
DA:3462,0
DA:3472,16
DA:3481,32
DA:3482,64
DA:3485,0
DA:3488,96
DA:3490,80
DA:3510,16
DA:3511,16
DA:3512,16
DA:3514,288
DA:3515,144
DA:3518,16
DA:3520,16
DA:3522,16
DA:3524,0
DA:3525,0
DA:3526,16
DA:3529,16
DA:3530,16
DA:3532,48
DA:3534,48
DA:3535,48
DA:3537,16
DA:3538,16
DA:3539,16
DA:3541,32
DA:3543,32
DA:3544,32
DA:3545,0
DA:3546,32
DA:3547,32
DA:3548,32
DA:3549,32
DA:3550,32
DA:3551,32
DA:3553,0
DA:3554,0
DA:3555,0
DA:3559,32
DA:3560,32
DA:3561,32
DA:3562,32
DA:3567,0
DA:3568,0
DA:3569,0
DA:3570,0
DA:3571,0
DA:3572,0
DA:3573,0
DA:3574,0
DA:3575,0
DA:3581,80
DA:3582,80
DA:3584,0
DA:3586,32
DA:3588,32
DA:3591,32
DA:3592,32
DA:3593,0
DA:3595,0
DA:3596,0
DA:3600,0
DA:3601,0
DA:3602,0
DA:3603,0
DA:3604,0
DA:3606,0
DA:3609,0
DA:3611,32
DA:3612,32
DA:3613,0
DA:3614,32
DA:3615,32
DA:3625,16
DA:3627,16
DA:3628,16
DA:3636,48
DA:3638,48
DA:3639,48
DA:3640,48
DA:3643,32
DA:3648,64
DA:3652,0
DA:3654,0
DA:3657,32
DA:3658,64
DA:3659,32
DA:3663,32
DA:3664,32
DA:3714,16
DA:3718,16
DA:3719,16
DA:3722,16
DA:3726,16
DA:3727,16
DA:3729,16
DA:3730,16
DA:3733,32
DA:3736,16
DA:3760,16
DA:3784,16
DA:3787,16
DA:3788,32
DA:3789,16
DA:3821,16
DA:3822,32
LF:1052
LH:232
end_of_record
TN:
SF:/usr/include/c++/13/new
FN:174,175,_ZnwmPv
FNDA:0,_ZnwmPv
FNF:1
FNH:0
DA:174,0
DA:175,0
LF:2
LH:0
end_of_record
TN:
SF:/usr/include/c++/13/span
FN:159,168,_ZNSt4spanIcLm18446744073709551615EEC2IPcEET_m
FN:189,191,_ZNSt4spanIcLm18446744073709551615EEC2ILm256EEERAT__c
FN:227,227,_ZNSt4spanIcLm18446744073709551615EEC2ERKS0_
FN:247,247,_ZNSt4spanIcLm18446744073709551615EEaSERKS0_
FN:253,254,_ZNKSt4spanIcLm18446744073709551615EE4sizeEv
FN:263,264,_ZNKSt4spanIcLm18446744073709551615EE5emptyEv
FN:294,295,_ZNKSt4spanIcLm18446744073709551615EE4dataEv
FN:301,302,_ZNKSt4spanIcLm18446744073709551615EE5beginEv
FN:306,307,_ZNKSt4spanIcLm18446744073709551615EE3endEv
FN:358,362,_ZNKSt4spanIcLm18446744073709551615EE5firstEm
FN:420,432,_ZNKSt4spanIcLm18446744073709551615EE7subspanEmm
FN:90,92,_ZNSt8__detail16__extent_storageILm18446744073709551615EEC2Em
FN:95,96,_ZNKSt8__detail16__extent_storageILm18446744073709551615EE9_M_extentEv
FNDA:144,_ZNSt4spanIcLm18446744073709551615EEC2IPcEET_m
FNDA:32,_ZNSt4spanIcLm18446744073709551615EEC2ILm256EEERAT__c
FNDA:32,_ZNSt4spanIcLm18446744073709551615EEC2ERKS0_
FNDA:0,_ZNSt4spanIcLm18446744073709551615EEaSERKS0_
FNDA:208,_ZNKSt4spanIcLm18446744073709551615EE4sizeEv
FNDA:16,_ZNKSt4spanIcLm18446744073709551615EE5emptyEv
FNDA:208,_ZNKSt4spanIcLm18446744073709551615EE4dataEv
FNDA:160,_ZNKSt4spanIcLm18446744073709551615EE5beginEv
FNDA:0,_ZNKSt4spanIcLm18446744073709551615EE3endEv
FNDA:32,_ZNKSt4spanIcLm18446744073709551615EE5firstEm
FNDA:80,_ZNKSt4spanIcLm18446744073709551615EE7subspanEmm
FNDA:144,_ZNSt8__detail16__extent_storageILm18446744073709551615EEC2Em
FNDA:208,_ZNKSt8__detail16__extent_storageILm18446744073709551615EE9_M_extentEv
FNF:13
FNH:11
DA:90,144
DA:91,144
DA:92,144
DA:95,208
DA:96,208
DA:159,144
DA:161,144
DA:168,144
DA:189,32
DA:190,32
DA:191,32
DA:227,32
DA:247,0
DA:253,208
DA:254,208
DA:263,16
DA:264,16
DA:294,208
DA:295,208
DA:301,160
DA:302,160
DA:306,0
DA:307,0
DA:358,32
DA:360,32
DA:361,32
DA:420,80
DA:423,80
DA:424,80
DA:425,80
DA:428,0
DA:429,0
DA:431,80
LF:33
LH:28
end_of_record
TN:
SF:/usr/include/c++/13/string_view
FN:136,136,_ZNSt17basic_string_viewIcSt11char_traitsIcEEC2ERKS2_
FN:140,143,_ZNSt17basic_string_viewIcSt11char_traitsIcEEC1EPKc
FN:146,148,_ZNSt17basic_string_viewIcSt11char_traitsIcEEC2EPKcm
FN:155,158,_ZNSt17basic_string_viewIcSt11char_traitsIcEEC1IPKcS5_EET_T0_
FN:181,181,_ZNSt17basic_string_viewIcSt11char_traitsIcEEaSERKS2_
FN:187,188,_ZNKSt17basic_string_viewIcSt11char_traitsIcEE5beginEv
FN:192,193,_ZNKSt17basic_string_viewIcSt11char_traitsIcEE3endEv
FN:229,230,_ZNKSt17basic_string_viewIcSt11char_traitsIcEE4sizeEv
FN:254,258,_ZNKSt17basic_string_viewIcSt11char_traitsIcEEixEm
FN:289,290,_ZNKSt17basic_string_viewIcSt11char_traitsIcEE4dataEv
FN:295,300,_ZNSt17basic_string_viewIcSt11char_traitsIcEE13remove_prefixEm
FN:303,307,_ZNSt17basic_string_viewIcSt11char_traitsIcEE13remove_suffixEm
FN:321,330,_ZNKSt17basic_string_viewIcSt11char_traitsIcEE4copyEPcmm
FN:334,339,_ZNKSt17basic_string_viewIcSt11char_traitsIcEE6substrEmm
FN:70,76,_ZSt10__sv_checkmmPKc
FNDA:0,_ZNSt17basic_string_viewIcSt11char_traitsIcEEC2ERKS2_
FNDA:0,_ZNSt17basic_string_viewIcSt11char_traitsIcEEC1EPKc
FNDA:0,_ZNSt17basic_string_viewIcSt11char_traitsIcEEC2EPKcm
FNDA:128,_ZNSt17basic_string_viewIcSt11char_traitsIcEEC1IPKcS5_EET_T0_
FNDA:96,_ZNSt17basic_string_viewIcSt11char_traitsIcEEaSERKS2_
FNDA:16,_ZNKSt17basic_string_viewIcSt11char_traitsIcEE5beginEv
FNDA:16,_ZNKSt17basic_string_viewIcSt11char_traitsIcEE3endEv
FNDA:0,_ZNKSt17basic_string_viewIcSt11char_traitsIcEE4sizeEv
FNDA:32,_ZNKSt17basic_string_viewIcSt11char_traitsIcEEixEm
FNDA:80,_ZNKSt17basic_string_viewIcSt11char_traitsIcEE4dataEv
FNDA:0,_ZNSt17basic_string_viewIcSt11char_traitsIcEE13remove_prefixEm
FNDA:0,_ZNSt17basic_string_viewIcSt11char_traitsIcEE13remove_suffixEm
FNDA:80,_ZNKSt17basic_string_viewIcSt11char_traitsIcEE4copyEPcmm
FNDA:0,_ZNKSt17basic_string_viewIcSt11char_traitsIcEE6substrEmm
FNDA:0,_ZSt10__sv_checkmmPKc
FNF:15
FNH:7
DA:70,0
DA:72,0
DA:73,0
DA:75,0
DA:136,0
DA:140,0
DA:141,0
DA:142,0
DA:143,0
DA:146,0
DA:147,0
DA:148,0
DA:155,128
DA:157,128
DA:158,128
DA:181,96
DA:187,16
DA:188,16
DA:192,16
DA:193,16
DA:229,0
DA:230,0
DA:254,32
DA:256,32
DA:257,32
DA:289,80
DA:290,80
DA:295,0
DA:297,0
DA:298,0
DA:299,0
DA:300,0
DA:303,0
DA:305,0
DA:306,0
DA:307,0
DA:321,80
DA:324,80
DA:325,80
DA:328,80
DA:329,80
DA:334,0
DA:336,0
DA:337,0
DA:338,0
LF:45
LH:18
end_of_record
TN:
SF:/usr/include/c++/13/type_traits
FN:3649,3656,_ZSt21is_constant_evaluatedv
FNDA:0,_ZSt21is_constant_evaluatedv
FNF:1
FNH:0
DA:3649,0
DA:3654,0
LF:2
LH:0
end_of_record
TN:
SF:/usr/include/x86_64-linux-gnu/c++/13/bits/c++config.h
FN:540,551,_ZSt23__is_constant_evaluatedv
FNDA:0,_ZSt23__is_constant_evaluatedv
FNF:1
FNH:0
DA:540,0
DA:547,0
LF:2
LH:0
end_of_record
